ARM GAS  C:\Users\noeta\AppData\Local\Temp\ccu0BtfE.s 			page 1


   1              		.cpu cortex-m4
   2              		.eabi_attribute 27, 1
   3              		.eabi_attribute 28, 1
   4              		.eabi_attribute 20, 1
   5              		.eabi_attribute 21, 1
   6              		.eabi_attribute 23, 3
   7              		.eabi_attribute 24, 1
   8              		.eabi_attribute 25, 1
   9              		.eabi_attribute 26, 1
  10              		.eabi_attribute 30, 2
  11              		.eabi_attribute 34, 1
  12              		.eabi_attribute 18, 4
  13              		.file	"color.c"
  14              		.text
  15              	.Ltext0:
  16              		.cfi_sections	.debug_frame
  17              		.section	.text.ProcessImage,"ax",%progbits
  18              		.align	1
  19              		.p2align 4,,15
  20              		.syntax unified
  21              		.thumb
  22              		.thumb_func
  23              		.fpu fpv4-sp-d16
  24              		.type	ProcessImage, %function
  25              	ProcessImage:
  26              	.LFB257:
  27              		.file 1 "color.c"
  28              		.loc 1 52 0
  29              		.cfi_startproc
  30              		@ args = 0, pretend = 0, frame = 904
  31              		@ frame_needed = 0, uses_anonymous_args = 0
  32              	.LVL0:
  33 0000 2DE9F04F 		push	{r4, r5, r6, r7, r8, r9, r10, fp, lr}
  34              		.cfi_def_cfa_offset 36
  35              		.cfi_offset 4, -36
  36              		.cfi_offset 5, -32
  37              		.cfi_offset 6, -28
  38              		.cfi_offset 7, -24
  39              		.cfi_offset 8, -20
  40              		.cfi_offset 9, -16
  41              		.cfi_offset 10, -12
  42              		.cfi_offset 11, -8
  43              		.cfi_offset 14, -4
  44              	.LBB37:
  45              	.LBB38:
  46              		.file 2 "../lib/e-puck2_main-processor/ChibiOS//os/rt/include/chregistry.h"
  47              		.loc 2 135 0
  48 0004 3C4A     		ldr	r2, .L14
  49 0006 3D49     		ldr	r1, .L14+4
  50 0008 9269     		ldr	r2, [r2, #24]
  51              	.LBE38:
  52              	.LBE37:
  53              		.loc 1 52 0
  54 000a 3D4B     		ldr	r3, .L14+8
  55              	.LBB40:
  56              	.LBB39:
  57              		.loc 2 135 0
ARM GAS  C:\Users\noeta\AppData\Local\Temp\ccu0BtfE.s 			page 2


  58 000c 9161     		str	r1, [r2, #24]
  59              	.LBE39:
  60              	.LBE40:
  61              		.loc 1 52 0
  62 000e ADF5637D 		sub	sp, sp, #908
  63              		.cfi_def_cfa_offset 944
  64              		.loc 1 58 0
  65 0012 4FF49672 		mov	r2, #300
  66              		.loc 1 52 0
  67 0016 1B68     		ldr	r3, [r3]
  68 0018 E193     		str	r3, [sp, #900]
  69              		.loc 1 59 0
  70 001a 0DEB0208 		add	r8, sp, r2
  71              		.loc 1 58 0
  72 001e 0021     		movs	r1, #0
  73 0020 6846     		mov	r0, sp
  74              	.LVL1:
  75 0022 FFF7FEFF 		bl	memset
  76              	.LVL2:
  77              		.loc 1 60 0
  78 0026 96AD     		add	r5, sp, #600
  79              		.loc 1 59 0
  80 0028 4FF49672 		mov	r2, #300
  81 002c 0021     		movs	r1, #0
  82 002e 4046     		mov	r0, r8
  83 0030 FFF7FEFF 		bl	memset
  84              	.LVL3:
  85              		.loc 1 60 0
  86 0034 2846     		mov	r0, r5
  87 0036 4FF49672 		mov	r2, #300
  88 003a 0021     		movs	r1, #0
  89 003c FFF7FEFF 		bl	memset
  90              	.LVL4:
  91 0040 304F     		ldr	r7, .L14+12
  92              	.LBB41:
  93              	.LBB42:
  94              	.LBB43:
  95              		.file 3 "../lib/e-puck2_main-processor/ChibiOS//os/rt/include/chbsem.h"
  96              		.loc 3 143 0
  97 0042 314E     		ldr	r6, .L14+16
  98 0044 0DF22B19 		addw	r9, sp, #299
  99              	.L2:
 100              	.LVL5:
 101 0048 3046     		mov	r0, r6
 102 004a FFF7FEFF 		bl	chSemWait
 103              	.LVL6:
 104              	.LBE43:
 105              	.LBE42:
 106              		.loc 1 66 0
 107 004e FFF7FEFF 		bl	dcmi_get_last_image_ptr
 108              	.LVL7:
 109 0052 0024     		movs	r4, #0
 110              	.LVL8:
 111              	.L3:
 112              	.LBB44:
 113              		.loc 1 72 0 discriminator 3
 114 0054 0219     		adds	r2, r0, r4
ARM GAS  C:\Users\noeta\AppData\Local\Temp\ccu0BtfE.s 			page 3


 115              		.loc 1 71 0 discriminator 3
 116 0056 035D     		ldrb	r3, [r0, r4]	@ zero_extendqisi2
 117              		.loc 1 72 0 discriminator 3
 118 0058 92F801E0 		ldrb	lr, [r2, #1]	@ zero_extendqisi2
 119 005c DA00     		lsls	r2, r3, #3
 120              		.loc 1 71 0 discriminator 3
 121 005e C4F34E01 		ubfx	r1, r4, #1, #15
 122              		.loc 1 73 0 discriminator 3
 123 0062 0EF01F0C 		and	ip, lr, #31
 124              		.loc 1 72 0 discriminator 3
 125 0066 02F03802 		and	r2, r2, #56
 126              		.loc 1 71 0 discriminator 3
 127 006a 9B10     		asrs	r3, r3, #2
 128 006c 0234     		adds	r4, r4, #2
 129              	.LVL9:
 130              		.loc 1 73 0 discriminator 3
 131 006e 4FEA4C0C 		lsl	ip, ip, #1
 132              		.loc 1 72 0 discriminator 3
 133 0072 02EB5E12 		add	r2, r2, lr, lsr #5
 134              		.loc 1 71 0 discriminator 3
 135 0076 03F03E03 		and	r3, r3, #62
 136              		.loc 1 70 0 discriminator 3
 137 007a B4F5167F 		cmp	r4, #600
 138              		.loc 1 73 0 discriminator 3
 139 007e 05F801C0 		strb	ip, [r5, r1]
 140              		.loc 1 72 0 discriminator 3
 141 0082 08F80120 		strb	r2, [r8, r1]
 142              		.loc 1 71 0 discriminator 3
 143 0086 0DF80130 		strb	r3, [sp, r1]
 144              		.loc 1 70 0 discriminator 3
 145 008a E3D1     		bne	.L3
 146              	.LBE44:
 147              		.loc 1 78 0
 148 008c 0021     		movs	r1, #0
 149              		.loc 1 77 0
 150 008e 0846     		mov	r0, r1
 151              	.LVL10:
 152              		.loc 1 76 0
 153 0090 0A46     		mov	r2, r1
 154 0092 0DF1FF33 		add	r3, sp, #-1
 155 0096 CC46     		mov	ip, r9
 156 0098 0DF25724 		addw	r4, sp, #599
 157              	.L4:
 158              	.LVL11:
 159              	.LBB45:
 160              		.loc 1 80 0 discriminator 3
 161 009c 13F801BF 		ldrb	fp, [r3, #1]!	@ zero_extendqisi2
 162              	.LVL12:
 163              		.loc 1 81 0 discriminator 3
 164 00a0 1CF801AF 		ldrb	r10, [ip, #1]!	@ zero_extendqisi2
 165              		.loc 1 82 0 discriminator 3
 166 00a4 14F801EF 		ldrb	lr, [r4, #1]!	@ zero_extendqisi2
 167              		.loc 1 79 0 discriminator 3
 168 00a8 9945     		cmp	r9, r3
 169              		.loc 1 80 0 discriminator 3
 170 00aa 5A44     		add	r2, r2, fp
 171              	.LVL13:
ARM GAS  C:\Users\noeta\AppData\Local\Temp\ccu0BtfE.s 			page 4


 172              		.loc 1 81 0 discriminator 3
 173 00ac 5044     		add	r0, r0, r10
 174              	.LVL14:
 175              		.loc 1 82 0 discriminator 3
 176 00ae 7144     		add	r1, r1, lr
 177              	.LVL15:
 178              		.loc 1 79 0 discriminator 3
 179 00b0 F4D1     		bne	.L4
 180              	.LBE45:
 181              		.loc 1 86 0
 182 00b2 01F5FA63 		add	r3, r1, #2000
 183              	.LVL16:
 184 00b6 9342     		cmp	r3, r2
 185 00b8 06D2     		bcs	.L5
 186              		.loc 1 86 0 is_stmt 0 discriminator 1
 187 00ba 00F5FA64 		add	r4, r0, #2000
 188 00be 9442     		cmp	r4, r2
 189 00c0 02D2     		bcs	.L5
 190              		.loc 1 87 0 is_stmt 1
 191 00c2 0123     		movs	r3, #1
 192 00c4 3B70     		strb	r3, [r7]
 193 00c6 BFE7     		b	.L2
 194              	.L5:
 195              		.loc 1 93 0
 196 00c8 02F5FA62 		add	r2, r2, #2000
 197              	.LVL17:
 198 00cc 8242     		cmp	r2, r0
 199 00ce 04D2     		bcs	.L7
 200              		.loc 1 93 0 is_stmt 0 discriminator 1
 201 00d0 8342     		cmp	r3, r0
 202 00d2 02D2     		bcs	.L7
 203              		.loc 1 94 0 is_stmt 1
 204 00d4 0223     		movs	r3, #2
 205 00d6 3B70     		strb	r3, [r7]
 206 00d8 B6E7     		b	.L2
 207              	.L7:
 208              		.loc 1 100 0
 209 00da 8A42     		cmp	r2, r1
 210 00dc 07D2     		bcs	.L8
 211              		.loc 1 100 0 is_stmt 0 discriminator 1
 212 00de 00F5FA60 		add	r0, r0, #2000
 213              	.LVL18:
 214 00e2 8842     		cmp	r0, r1
 215 00e4 03D2     		bcs	.L8
 216              		.loc 1 101 0 is_stmt 1
 217 00e6 4FF00303 		mov	r3, #3
 218 00ea 3B70     		strb	r3, [r7]
 219 00ec ACE7     		b	.L2
 220              	.LVL19:
 221              	.L8:
 222              		.loc 1 108 0
 223 00ee 4FF00003 		mov	r3, #0
 224 00f2 3B70     		strb	r3, [r7]
 225 00f4 A8E7     		b	.L2
 226              	.L15:
 227 00f6 00BF     		.align	2
 228              	.L14:
ARM GAS  C:\Users\noeta\AppData\Local\Temp\ccu0BtfE.s 			page 5


 229 00f8 00000000 		.word	ch
 230 00fc 00000000 		.word	.LANCHOR0
 231 0100 00000000 		.word	__stack_chk_guard
 232 0104 00000000 		.word	.LANCHOR2
 233 0108 00000000 		.word	.LANCHOR1
 234              	.LBE41:
 235              		.cfi_endproc
 236              	.LFE257:
 237              		.size	ProcessImage, .-ProcessImage
 238              		.section	.text.CaptureImage,"ax",%progbits
 239              		.align	1
 240              		.p2align 4,,15
 241              		.syntax unified
 242              		.thumb
 243              		.thumb_func
 244              		.fpu fpv4-sp-d16
 245              		.type	CaptureImage, %function
 246              	CaptureImage:
 247              	.LFB256:
 248              		.loc 1 26 0
 249              		.cfi_startproc
 250              		@ Volatile: function does not return.
 251              		@ args = 0, pretend = 0, frame = 8
 252              		@ frame_needed = 0, uses_anonymous_args = 0
 253              	.LVL20:
 254 0000 80B5     		push	{r7, lr}
 255              		.cfi_def_cfa_offset 8
 256              		.cfi_offset 7, -8
 257              		.cfi_offset 14, -4
 258              	.LBB62:
 259              	.LBB63:
 260              		.loc 2 135 0
 261 0002 274C     		ldr	r4, .L22
 262              	.LBE63:
 263              	.LBE62:
 264              		.loc 1 26 0
 265 0004 2749     		ldr	r1, .L22+4
 266              	.LBB65:
 267              	.LBB64:
 268              		.loc 2 135 0
 269 0006 A369     		ldr	r3, [r4, #24]
 270 0008 274A     		ldr	r2, .L22+8
 271 000a 9A61     		str	r2, [r3, #24]
 272              	.LBE64:
 273              	.LBE65:
 274              		.loc 1 26 0
 275 000c 86B0     		sub	sp, sp, #24
 276              		.cfi_def_cfa_offset 32
 277              		.loc 1 33 0
 278 000e 8023     		movs	r3, #128
 279 0010 F022     		movs	r2, #240
 280              		.loc 1 26 0
 281 0012 0D68     		ldr	r5, [r1]
 282              		.loc 1 33 0
 283 0014 0092     		str	r2, [sp]
 284 0016 4FF49B71 		mov	r1, #310
 285 001a 0022     		movs	r2, #0
ARM GAS  C:\Users\noeta\AppData\Local\Temp\ccu0BtfE.s 			page 6


 286 001c CDE90133 		strd	r3, r3, [sp, #4]
 287 0020 3020     		movs	r0, #48
 288              	.LVL21:
 289 0022 1423     		movs	r3, #20
 290              		.loc 1 26 0
 291 0024 0595     		str	r5, [sp, #20]
 292              		.loc 1 33 0
 293 0026 FFF7FEFF 		bl	po8030_advanced_config
 294              	.LVL22:
 295              		.loc 1 34 0
 296 002a 0020     		movs	r0, #0
 297 002c FFF7FEFF 		bl	po8030_set_awb
 298              	.LVL23:
 299 0030 1E4D     		ldr	r5, .L22+12
 300              	.LBB66:
 301              	.LBB67:
 302              	.LBB68:
 303              	.LBB69:
 304              		.file 4 "../lib/e-puck2_main-processor/ChibiOS//os/rt/include/chsys.h"
 305              		.loc 4 367 0
 306 0032 1F4F     		ldr	r7, .L22+16
 307              	.LBE69:
 308              	.LBE68:
 309              	.LBE67:
 310              	.LBE66:
 311              		.loc 1 35 0
 312 0034 5D22     		movs	r2, #93
 313 0036 4521     		movs	r1, #69
 314 0038 4A20     		movs	r0, #74
 315 003a FFF7FEFF 		bl	po8030_set_rgb_gain
 316              	.LVL24:
 317              		.loc 1 36 0
 318 003e FFF7FEFF 		bl	dcmi_enable_double_buffering
 319              	.LVL25:
 320              		.loc 1 37 0
 321 0042 0020     		movs	r0, #0
 322 0044 FFF7FEFF 		bl	dcmi_set_capture_mode
 323              	.LVL26:
 324              	.LBB92:
 325              	.LBB89:
 326              	.LBB74:
 327              	.LBB75:
 328              		.loc 3 271 0
 329 0048 A846     		mov	r8, r5
 330              	.LBE75:
 331              	.LBE74:
 332              	.LBE89:
 333              	.LBE92:
 334              		.loc 1 38 0
 335 004a FFF7FEFF 		bl	dcmi_prepare
 336              	.LVL27:
 337              	.LBB93:
 338              	.LBB90:
 339              	.LBB77:
 340              	.LBB78:
 341              	.LBB79:
 342              	.LBB80:
ARM GAS  C:\Users\noeta\AppData\Local\Temp\ccu0BtfE.s 			page 7


 343              	.LBB81:
 344              		.file 5 "../lib/e-puck2_main-processor/ChibiOS//os/ext/CMSIS/include/core_cmFunc.h"
 345              		.loc 5 546 0
 346 004e 2026     		movs	r6, #32
 347 0050 13E0     		b	.L19
 348              	.LVL28:
 349              	.L17:
 350              	.LBE81:
 351              	.LBE80:
 352              	.LBE79:
 353              	.LBE78:
 354              	.LBE77:
 355              		.loc 3 286 0
 356 0052 FFF7FEFF 		bl	chSchRescheduleS
 357              	.LVL29:
 358              	.LBB86:
 359              	.LBB73:
 360              		.loc 4 360 0
 361 0056 FFF7FEFF 		bl	_dbg_check_unlock
 362              	.LVL30:
 363              		.loc 4 361 0
 364 005a FFF7FEFF 		bl	_stats_stop_measure_crit_thd
 365              	.LVL31:
 366              		.loc 4 367 0
 367 005e 2368     		ldr	r3, [r4]
 368 0060 A342     		cmp	r3, r4
 369 0062 07D0     		beq	.L18
 370 0064 A269     		ldr	r2, [r4, #24]
 371 0066 9B68     		ldr	r3, [r3, #8]
 372 0068 9268     		ldr	r2, [r2, #8]
 373 006a 9A42     		cmp	r2, r3
 374 006c 02D2     		bcs	.L18
 375 006e 3846     		mov	r0, r7
 376 0070 FFF7FEFF 		bl	chSysHalt
 377              	.LVL32:
 378              	.L18:
 379              	.LBB70:
 380              	.LBB71:
 381              	.LBB72:
 382              		.loc 5 546 0
 383 0074 0023     		movs	r3, #0
 384              		.syntax unified
 385              	@ 546 "../lib/e-puck2_main-processor/ChibiOS//os/ext/CMSIS/include/core_cmFunc.h" 1
 386 0076 83F31188 		MSR basepri, r3
 387              	@ 0 "" 2
 388              	.LVL33:
 389              		.thumb
 390              		.syntax unified
 391              	.L19:
 392              	.LBE72:
 393              	.LBE71:
 394              	.LBE70:
 395              	.LBE73:
 396              	.LBE86:
 397              	.LBE90:
 398              	.LBE93:
 399              		.loc 1 42 0 discriminator 1
ARM GAS  C:\Users\noeta\AppData\Local\Temp\ccu0BtfE.s 			page 8


 400 007a FFF7FEFF 		bl	dcmi_capture_start
 401              	.LVL34:
 402              		.loc 1 44 0 discriminator 1
 403 007e FFF7FEFF 		bl	wait_image_ready
 404              	.LVL35:
 405              	.LBB94:
 406              	.LBB91:
 407              	.LBB87:
 408              	.LBB85:
 409              	.LBB84:
 410              	.LBB83:
 411              	.LBB82:
 412              		.loc 5 546 0 discriminator 1
 413              		.syntax unified
 414              	@ 546 "../lib/e-puck2_main-processor/ChibiOS//os/ext/CMSIS/include/core_cmFunc.h" 1
 415 0082 86F31188 		MSR basepri, r6
 416              	@ 0 "" 2
 417              	.LVL36:
 418              		.thumb
 419              		.syntax unified
 420              	.LBE82:
 421              	.LBE83:
 422              	.LBE84:
 423              		.loc 4 349 0 discriminator 1
 424 0086 FFF7FEFF 		bl	_stats_start_measure_crit_thd
 425              	.LVL37:
 426              		.loc 4 350 0 discriminator 1
 427 008a FFF7FEFF 		bl	_dbg_check_lock
 428              	.LVL38:
 429              	.LBE85:
 430              	.LBE87:
 431              	.LBB88:
 432              	.LBB76:
 433              		.loc 3 268 0 discriminator 1
 434 008e FFF7FEFF 		bl	chDbgCheckClassI
 435              	.LVL39:
 436              		.loc 3 270 0 discriminator 1
 437 0092 AB68     		ldr	r3, [r5, #8]
 438 0094 002B     		cmp	r3, #0
 439 0096 DCDC     		bgt	.L17
 440              		.loc 3 271 0
 441 0098 4046     		mov	r0, r8
 442 009a FFF7FEFF 		bl	chSemSignalI
 443              	.LVL40:
 444 009e D8E7     		b	.L17
 445              	.L23:
 446              		.align	2
 447              	.L22:
 448 00a0 00000000 		.word	ch
 449 00a4 00000000 		.word	__stack_chk_guard
 450 00a8 00000000 		.word	.LANCHOR3
 451 00ac 00000000 		.word	.LANCHOR1
 452 00b0 00000000 		.word	.LANCHOR4
 453              	.LBE76:
 454              	.LBE88:
 455              	.LBE91:
 456              	.LBE94:
ARM GAS  C:\Users\noeta\AppData\Local\Temp\ccu0BtfE.s 			page 9


 457              		.cfi_endproc
 458              	.LFE256:
 459              		.size	CaptureImage, .-CaptureImage
 460              		.section	.text.get_color,"ax",%progbits
 461              		.align	1
 462              		.p2align 4,,15
 463              		.global	get_color
 464              		.syntax unified
 465              		.thumb
 466              		.thumb_func
 467              		.fpu fpv4-sp-d16
 468              		.type	get_color, %function
 469              	get_color:
 470              	.LFB258:
 471              		.loc 1 118 0
 472              		.cfi_startproc
 473              		@ args = 0, pretend = 0, frame = 8
 474              		@ frame_needed = 0, uses_anonymous_args = 0
 475 0000 00B5     		push	{lr}
 476              		.cfi_def_cfa_offset 4
 477              		.cfi_offset 14, -4
 478 0002 074B     		ldr	r3, .L28
 479              		.loc 1 119 0
 480 0004 0749     		ldr	r1, .L28+4
 481              		.loc 1 118 0
 482 0006 1A68     		ldr	r2, [r3]
 483              		.loc 1 120 0
 484 0008 0878     		ldrb	r0, [r1]	@ zero_extendqisi2
 485              		.loc 1 118 0
 486 000a 83B0     		sub	sp, sp, #12
 487              		.cfi_def_cfa_offset 16
 488              		.loc 1 118 0
 489 000c 0192     		str	r2, [sp, #4]
 490              		.loc 1 120 0
 491 000e 019A     		ldr	r2, [sp, #4]
 492 0010 1B68     		ldr	r3, [r3]
 493 0012 9A42     		cmp	r2, r3
 494 0014 02D1     		bne	.L27
 495 0016 03B0     		add	sp, sp, #12
 496              		.cfi_remember_state
 497              		.cfi_def_cfa_offset 4
 498              		@ sp needed
 499 0018 5DF804FB 		ldr	pc, [sp], #4
 500              	.L27:
 501              		.cfi_restore_state
 502 001c FFF7FEFF 		bl	__stack_chk_fail
 503              	.LVL41:
 504              	.L29:
 505              		.align	2
 506              	.L28:
 507 0020 00000000 		.word	__stack_chk_guard
 508 0024 00000000 		.word	.LANCHOR2
 509              		.cfi_endproc
 510              	.LFE258:
 511              		.size	get_color, .-get_color
 512              		.section	.text.color_start,"ax",%progbits
 513              		.align	1
ARM GAS  C:\Users\noeta\AppData\Local\Temp\ccu0BtfE.s 			page 10


 514              		.p2align 4,,15
 515              		.global	color_start
 516              		.syntax unified
 517              		.thumb
 518              		.thumb_func
 519              		.fpu fpv4-sp-d16
 520              		.type	color_start, %function
 521              	color_start:
 522              	.LFB259:
 523              		.loc 1 123 0
 524              		.cfi_startproc
 525              		@ args = 0, pretend = 0, frame = 8
 526              		@ frame_needed = 0, uses_anonymous_args = 0
 527 0000 30B5     		push	{r4, r5, lr}
 528              		.cfi_def_cfa_offset 12
 529              		.cfi_offset 4, -12
 530              		.cfi_offset 5, -8
 531              		.cfi_offset 14, -4
 532 0002 0E4C     		ldr	r4, .L34
 533              		.loc 1 124 0
 534 0004 0E4B     		ldr	r3, .L34+4
 535              		.loc 1 123 0
 536 0006 2268     		ldr	r2, [r4]
 537              		.loc 1 124 0
 538 0008 0E48     		ldr	r0, .L34+8
 539              		.loc 1 123 0
 540 000a 85B0     		sub	sp, sp, #20
 541              		.cfi_def_cfa_offset 32
 542              		.loc 1 124 0
 543 000c 0025     		movs	r5, #0
 544              		.loc 1 123 0
 545 000e 0392     		str	r2, [sp, #12]
 546              		.loc 1 124 0
 547 0010 40F67811 		movw	r1, #2424
 548 0014 4022     		movs	r2, #64
 549 0016 0095     		str	r5, [sp]
 550 0018 FFF7FEFF 		bl	chThdCreateStatic
 551              	.LVL42:
 552              		.loc 1 125 0
 553 001c 0A4B     		ldr	r3, .L34+12
 554 001e 0095     		str	r5, [sp]
 555 0020 4022     		movs	r2, #64
 556 0022 0A48     		ldr	r0, .L34+16
 557 0024 4FF41E71 		mov	r1, #632
 558 0028 FFF7FEFF 		bl	chThdCreateStatic
 559              	.LVL43:
 560              		.loc 1 126 0
 561 002c 039A     		ldr	r2, [sp, #12]
 562 002e 2368     		ldr	r3, [r4]
 563 0030 9A42     		cmp	r2, r3
 564 0032 01D1     		bne	.L33
 565 0034 05B0     		add	sp, sp, #20
 566              		.cfi_remember_state
 567              		.cfi_def_cfa_offset 12
 568              		@ sp needed
 569 0036 30BD     		pop	{r4, r5, pc}
 570              	.L33:
ARM GAS  C:\Users\noeta\AppData\Local\Temp\ccu0BtfE.s 			page 11


 571              		.cfi_restore_state
 572 0038 FFF7FEFF 		bl	__stack_chk_fail
 573              	.LVL44:
 574              	.L35:
 575              		.align	2
 576              	.L34:
 577 003c 00000000 		.word	__stack_chk_guard
 578 0040 00000000 		.word	ProcessImage
 579 0044 00000000 		.word	.LANCHOR5
 580 0048 00000000 		.word	CaptureImage
 581 004c 00000000 		.word	.LANCHOR6
 582              		.cfi_endproc
 583              	.LFE259:
 584              		.size	color_start, .-color_start
 585              		.section	.bss.color,"aw",%nobits
 586              		.set	.LANCHOR2,. + 0
 587              		.type	color, %object
 588              		.size	color, 1
 589              	color:
 590 0000 00       		.space	1
 591              		.section	.bss.waCaptureImage,"aw",%nobits
 592              		.align	3
 593              		.set	.LANCHOR6,. + 0
 594              		.type	waCaptureImage, %object
 595              		.size	waCaptureImage, 632
 596              	waCaptureImage:
 597 0000 00000000 		.space	632
 597      00000000 
 597      00000000 
 597      00000000 
 597      00000000 
 598              		.section	.bss.waProcessImage,"aw",%nobits
 599              		.align	3
 600              		.set	.LANCHOR5,. + 0
 601              		.type	waProcessImage, %object
 602              		.size	waProcessImage, 2424
 603              	waProcessImage:
 604 0000 00000000 		.space	2424
 604      00000000 
 604      00000000 
 604      00000000 
 604      00000000 
 605              		.section	.data.image_ready_sem,"aw",%progbits
 606              		.align	2
 607              		.set	.LANCHOR1,. + 0
 608              		.type	image_ready_sem, %object
 609              		.size	image_ready_sem, 12
 610              	image_ready_sem:
 611 0000 00000000 		.word	image_ready_sem
 612 0004 00000000 		.word	image_ready_sem
 613 0008 00000000 		.word	0
 614              		.section	.rodata.__FUNCTION__.11308,"a",%progbits
 615              		.align	2
 616              		.set	.LANCHOR3,. + 0
 617              		.type	__FUNCTION__.11308, %object
 618              		.size	__FUNCTION__.11308, 13
 619              	__FUNCTION__.11308:
ARM GAS  C:\Users\noeta\AppData\Local\Temp\ccu0BtfE.s 			page 12


 620 0000 43617074 		.ascii	"CaptureImage\000"
 620      75726549 
 620      6D616765 
 620      00
 621              		.section	.rodata.__FUNCTION__.11314,"a",%progbits
 622              		.align	2
 623              		.set	.LANCHOR0,. + 0
 624              		.type	__FUNCTION__.11314, %object
 625              		.size	__FUNCTION__.11314, 13
 626              	__FUNCTION__.11314:
 627 0000 50726F63 		.ascii	"ProcessImage\000"
 627      65737349 
 627      6D616765 
 627      00
 628              		.section	.rodata.__func__.7153,"a",%progbits
 629              		.align	2
 630              		.set	.LANCHOR4,. + 0
 631              		.type	__func__.7153, %object
 632              		.size	__func__.7153, 12
 633              	__func__.7153:
 634 0000 63685379 		.ascii	"chSysUnlock\000"
 634      73556E6C 
 634      6F636B00 
 635              		.text
 636              	.Letext0:
 637              		.file 6 "c:\\users\\noeta\\downloads\\eclipse_e-puck2\\tools\\gcc-arm-none-eabi-7-2017-q4-major-wi
 638              		.file 7 "c:\\users\\noeta\\downloads\\eclipse_e-puck2\\tools\\gcc-arm-none-eabi-7-2017-q4-major-wi
 639              		.file 8 "c:\\users\\noeta\\downloads\\eclipse_e-puck2\\tools\\gcc-arm-none-eabi-7-2017-q4-major-wi
 640              		.file 9 "../lib/e-puck2_main-processor/ChibiOS//os/rt/ports/ARMCMx/compilers/GCC/chtypes.h"
 641              		.file 10 "../lib/e-puck2_main-processor/ChibiOS//os/rt/include/chsystypes.h"
 642              		.file 11 "../lib/e-puck2_main-processor/ChibiOS//os/rt/include/chschd.h"
 643              		.file 12 "../lib/e-puck2_main-processor/ChibiOS//os/ext/CMSIS/include/core_cm4.h"
 644              		.file 13 "../lib/e-puck2_main-processor/ChibiOS//os/ext/CMSIS/ST/system_stm32f4xx.h"
 645              		.file 14 "../lib/e-puck2_main-processor/ChibiOS//os/ext/CMSIS/ST/stm32f407xx.h"
 646              		.file 15 "../lib/e-puck2_main-processor/ChibiOS//os/rt/ports/ARMCMx/chcore.h"
 647              		.file 16 "../lib/e-puck2_main-processor/ChibiOS//os/rt/ports/ARMCMx/chcore_v7m.h"
 648              		.file 17 "../lib/e-puck2_main-processor/ChibiOS//os/rt/include/chdebug.h"
 649              		.file 18 "../lib/e-puck2_main-processor/ChibiOS//os/rt/include/chtm.h"
 650              		.file 19 "../lib/e-puck2_main-processor/ChibiOS//os/rt/include/chstats.h"
 651              		.file 20 "../lib/e-puck2_main-processor/ChibiOS//os/rt/include/chsem.h"
 652              		.file 21 "../lib/e-puck2_main-processor/ChibiOS//os/rt/include/chmtx.h"
 653              		.file 22 "../lib/e-puck2_main-processor/ChibiOS//os/rt/include/chevents.h"
 654              		.file 23 "../lib/e-puck2_main-processor/ChibiOS//os/rt/include/chqueues.h"
 655              		.file 24 "../lib/e-puck2_main-processor/ChibiOS//os/hal/ports/STM32/STM32F4xx/stm32_dma.h"
 656              		.file 25 "../lib/e-puck2_main-processor/ChibiOS//os/hal/include/hal_ioblock.h"
 657              		.file 26 "../lib/e-puck2_main-processor/ChibiOS//os/hal/ports/STM32/LLD/GPIOv2/pal_lld.h"
 658              		.file 27 "../lib/e-puck2_main-processor/ChibiOS//os/hal/include/adc.h"
 659              		.file 28 "../lib/e-puck2_main-processor/ChibiOS//os/hal/ports/STM32/STM32F4xx/adc_lld.h"
 660              		.file 29 "../lib/e-puck2_main-processor/ChibiOS//os/hal/include/can.h"
 661              		.file 30 "../lib/e-puck2_main-processor/ChibiOS//os/hal/ports/STM32/LLD/can_lld.h"
 662              		.file 31 "../lib/e-puck2_main-processor/ChibiOS//os/hal/include/dac.h"
 663              		.file 32 "../lib/e-puck2_main-processor/ChibiOS//os/hal/ports/STM32/LLD/DACv1/dac_lld.h"
 664              		.file 33 "../lib/e-puck2_main-processor/ChibiOS//os/hal/include/ext.h"
 665              		.file 34 "../lib/e-puck2_main-processor/ChibiOS//os/hal/ports/STM32/LLD/ext_lld.h"
 666              		.file 35 "../lib/e-puck2_main-processor/ChibiOS//os/hal/include/gpt.h"
 667              		.file 36 "../lib/e-puck2_main-processor/ChibiOS//os/hal/ports/STM32/LLD/TIMv1/gpt_lld.h"
 668              		.file 37 "../lib/e-puck2_main-processor/ChibiOS//os/hal/ports/STM32/LLD/TIMv1/stm32_tim.h"
ARM GAS  C:\Users\noeta\AppData\Local\Temp\ccu0BtfE.s 			page 13


 669              		.file 38 "../lib/e-puck2_main-processor/ChibiOS//os/hal/include/i2c.h"
 670              		.file 39 "../lib/e-puck2_main-processor/ChibiOS//os/hal/ports/STM32/LLD/I2Cv1/i2c_lld.h"
 671              		.file 40 "../lib/e-puck2_main-processor/ChibiOS//os/hal/include/i2s.h"
 672              		.file 41 "../lib/e-puck2_main-processor/ChibiOS//os/hal/ports/STM32/LLD/SPIv1/i2s_lld.h"
 673              		.file 42 "../lib/e-puck2_main-processor/ChibiOS//os/hal/include/pwm.h"
 674              		.file 43 "../lib/e-puck2_main-processor/ChibiOS//os/hal/ports/STM32/LLD/TIMv1/pwm_lld.h"
 675              		.file 44 "../lib/e-puck2_main-processor/ChibiOS//os/hal/include/serial.h"
 676              		.file 45 "../lib/e-puck2_main-processor/ChibiOS//os/hal/ports/STM32/LLD/USARTv1/serial_lld.h"
 677              		.file 46 "../lib/e-puck2_main-processor/ChibiOS//os/hal/include/sdc.h"
 678              		.file 47 "../lib/e-puck2_main-processor/ChibiOS//os/hal/ports/STM32/LLD/sdc_lld.h"
 679              		.file 48 "../lib/e-puck2_main-processor/ChibiOS//os/hal/include/spi.h"
 680              		.file 49 "../lib/e-puck2_main-processor/ChibiOS//os/hal/ports/STM32/LLD/SPIv1/spi_lld.h"
 681              		.file 50 "../lib/e-puck2_main-processor/ChibiOS//os/hal/include/usb.h"
 682              		.file 51 "../lib/e-puck2_main-processor/ChibiOS//os/hal/ports/STM32/LLD/OTGv1/usb_lld.h"
 683              		.file 52 "../lib/e-puck2_main-processor/ChibiOS//os/hal/ports/STM32/LLD/OTGv1/stm32_otg.h"
 684              		.file 53 "../lib/e-puck2_main-processor/ChibiOS_ext/os/hal/include/../ports/STM32/STM32F4xx/dcmi_l
 685              		.file 54 "../lib/e-puck2_main-processor/src/camera/po8030.h"
 686              		.file 55 "../lib/e-puck2_main-processor/src/camera/dcmi_camera.h"
 687              		.file 56 "c:\\users\\noeta\\downloads\\eclipse_e-puck2\\tools\\gcc-arm-none-eabi-7-2017-q4-major-w
 688              		.file 57 "c:\\users\\noeta\\downloads\\eclipse_e-puck2\\tools\\gcc-arm-none-eabi-7-2017-q4-major-w
 689              		.file 58 "c:\\users\\noeta\\downloads\\eclipse_e-puck2\\tools\\gcc-arm-none-eabi-7-2017-q4-major-w
 690              		.file 59 "../lib/e-puck2_main-processor/src/msgbus/messagebus.h"
 691              		.file 60 "c:\\users\\noeta\\downloads\\eclipse_e-puck2\\tools\\gcc-arm-none-eabi-7-2017-q4-major-w
 692              		.file 61 "c:\\users\\noeta\\downloads\\eclipse_e-puck2\\tools\\gcc-arm-none-eabi-7-2017-q4-major-w
 693              		.file 62 "../lib/e-puck2_main-processor/src/parameter/parameter.h"
 694              		.file 63 "./main.h"
 695              		.file 64 "../lib/e-puck2_main-processor/ChibiOS//os/rt/include/chthreads.h"
 696              		.file 65 "<built-in>"