ARM GAS  C:\Users\noeta\AppData\Local\Temp\ccRidrRf.s 			page 1


   1              		.cpu cortex-m4
   2              		.eabi_attribute 27, 1
   3              		.eabi_attribute 28, 1
   4              		.eabi_attribute 20, 1
   5              		.eabi_attribute 21, 1
   6              		.eabi_attribute 23, 3
   7              		.eabi_attribute 24, 1
   8              		.eabi_attribute 25, 1
   9              		.eabi_attribute 26, 1
  10              		.eabi_attribute 30, 2
  11              		.eabi_attribute 34, 1
  12              		.eabi_attribute 18, 4
  13              		.file	"distance.c"
  14              		.text
  15              	.Ltext0:
  16              		.cfi_sections	.debug_frame
  17              		.section	.text.Distance,"ax",%progbits
  18              		.align	1
  19              		.p2align 4,,15
  20              		.syntax unified
  21              		.thumb
  22              		.thumb_func
  23              		.fpu fpv4-sp-d16
  24              		.type	Distance, %function
  25              	Distance:
  26              	.LFB259:
  27              		.file 1 "distance.c"
  28              		.loc 1 8 0
  29              		.cfi_startproc
  30              		@ Volatile: function does not return.
  31              		@ args = 0, pretend = 0, frame = 8
  32              		@ frame_needed = 0, uses_anonymous_args = 0
  33              	.LVL0:
  34 0000 00B5     		push	{lr}
  35              		.cfi_def_cfa_offset 4
  36              		.cfi_offset 14, -4
  37              	.LBB4:
  38              	.LBB5:
  39              		.file 2 "../lib/e-puck2_main-processor/ChibiOS//os/rt/include/chregistry.h"
  40              		.loc 2 135 0
  41 0002 084A     		ldr	r2, .L6
  42              	.LBE5:
  43              	.LBE4:
  44              		.loc 1 8 0
  45 0004 084B     		ldr	r3, .L6+4
  46              	.LBB8:
  47              	.LBB6:
  48              		.loc 2 135 0
  49 0006 9269     		ldr	r2, [r2, #24]
  50 0008 0849     		ldr	r1, .L6+8
  51              	.LBE6:
  52              	.LBE8:
  53              		.loc 1 8 0
  54 000a 1B68     		ldr	r3, [r3]
  55 000c 084C     		ldr	r4, .L6+12
  56              	.LBB9:
  57              	.LBB7:
ARM GAS  C:\Users\noeta\AppData\Local\Temp\ccRidrRf.s 			page 2


  58              		.loc 2 135 0
  59 000e 9161     		str	r1, [r2, #24]
  60              	.LBE7:
  61              	.LBE9:
  62              		.loc 1 8 0
  63 0010 83B0     		sub	sp, sp, #12
  64              		.cfi_def_cfa_offset 16
  65              		.loc 1 8 0
  66 0012 0193     		str	r3, [sp, #4]
  67              	.LVL1:
  68              	.L2:
  69              		.loc 1 14 0 discriminator 1
  70 0014 FFF7FEFF 		bl	VL53L0X_get_dist_mm
  71              	.LVL2:
  72 0018 2080     		strh	r0, [r4]	@ movhi
  73              		.loc 1 15 0 discriminator 1
  74 001a 6420     		movs	r0, #100
  75 001c FFF7FEFF 		bl	chThdSleep
  76              	.LVL3:
  77 0020 F8E7     		b	.L2
  78              	.L7:
  79 0022 00BF     		.align	2
  80              	.L6:
  81 0024 00000000 		.word	ch
  82 0028 00000000 		.word	__stack_chk_guard
  83 002c 00000000 		.word	.LANCHOR0
  84 0030 00000000 		.word	.LANCHOR1
  85              		.cfi_endproc
  86              	.LFE259:
  87              		.size	Distance, .-Distance
  88              		.section	.text.distance_start,"ax",%progbits
  89              		.align	1
  90              		.p2align 4,,15
  91              		.global	distance_start
  92              		.syntax unified
  93              		.thumb
  94              		.thumb_func
  95              		.fpu fpv4-sp-d16
  96              		.type	distance_start, %function
  97              	distance_start:
  98              	.LFB260:
  99              		.loc 1 19 0
 100              		.cfi_startproc
 101              		@ args = 0, pretend = 0, frame = 8
 102              		@ frame_needed = 0, uses_anonymous_args = 0
 103 0000 10B5     		push	{r4, lr}
 104              		.cfi_def_cfa_offset 8
 105              		.cfi_offset 4, -8
 106              		.cfi_offset 14, -4
 107 0002 0A4C     		ldr	r4, .L12
 108              		.loc 1 20 0
 109 0004 0A4B     		ldr	r3, .L12+4
 110              		.loc 1 19 0
 111 0006 2268     		ldr	r2, [r4]
 112              		.loc 1 20 0
 113 0008 0A48     		ldr	r0, .L12+8
 114              		.loc 1 19 0
ARM GAS  C:\Users\noeta\AppData\Local\Temp\ccRidrRf.s 			page 3


 115 000a 84B0     		sub	sp, sp, #16
 116              		.cfi_def_cfa_offset 24
 117              		.loc 1 20 0
 118 000c 4FF41E71 		mov	r1, #632
 119              		.loc 1 19 0
 120 0010 0392     		str	r2, [sp, #12]
 121              		.loc 1 20 0
 122 0012 0022     		movs	r2, #0
 123 0014 0092     		str	r2, [sp]
 124 0016 4022     		movs	r2, #64
 125 0018 FFF7FEFF 		bl	chThdCreateStatic
 126              	.LVL4:
 127              		.loc 1 21 0
 128 001c 039A     		ldr	r2, [sp, #12]
 129 001e 2368     		ldr	r3, [r4]
 130 0020 9A42     		cmp	r2, r3
 131 0022 01D1     		bne	.L11
 132 0024 04B0     		add	sp, sp, #16
 133              		.cfi_remember_state
 134              		.cfi_def_cfa_offset 8
 135              		@ sp needed
 136 0026 10BD     		pop	{r4, pc}
 137              	.L11:
 138              		.cfi_restore_state
 139 0028 FFF7FEFF 		bl	__stack_chk_fail
 140              	.LVL5:
 141              	.L13:
 142              		.align	2
 143              	.L12:
 144 002c 00000000 		.word	__stack_chk_guard
 145 0030 00000000 		.word	Distance
 146 0034 00000000 		.word	.LANCHOR2
 147              		.cfi_endproc
 148              	.LFE260:
 149              		.size	distance_start, .-distance_start
 150              		.section	.text.get_distance,"ax",%progbits
 151              		.align	1
 152              		.p2align 4,,15
 153              		.global	get_distance
 154              		.syntax unified
 155              		.thumb
 156              		.thumb_func
 157              		.fpu fpv4-sp-d16
 158              		.type	get_distance, %function
 159              	get_distance:
 160              	.LFB261:
 161              		.loc 1 23 0
 162              		.cfi_startproc
 163              		@ args = 0, pretend = 0, frame = 8
 164              		@ frame_needed = 0, uses_anonymous_args = 0
 165 0000 00B5     		push	{lr}
 166              		.cfi_def_cfa_offset 4
 167              		.cfi_offset 14, -4
 168 0002 084B     		ldr	r3, .L18
 169              		.loc 1 24 0
 170 0004 0849     		ldr	r1, .L18+4
 171              		.loc 1 23 0
ARM GAS  C:\Users\noeta\AppData\Local\Temp\ccRidrRf.s 			page 4


 172 0006 1A68     		ldr	r2, [r3]
 173              		.loc 1 25 0
 174 0008 B1F90000 		ldrsh	r0, [r1]
 175              		.loc 1 23 0
 176 000c 83B0     		sub	sp, sp, #12
 177              		.cfi_def_cfa_offset 16
 178              		.loc 1 23 0
 179 000e 0192     		str	r2, [sp, #4]
 180              		.loc 1 25 0
 181 0010 019A     		ldr	r2, [sp, #4]
 182 0012 1B68     		ldr	r3, [r3]
 183 0014 9A42     		cmp	r2, r3
 184 0016 02D1     		bne	.L17
 185 0018 03B0     		add	sp, sp, #12
 186              		.cfi_remember_state
 187              		.cfi_def_cfa_offset 4
 188              		@ sp needed
 189 001a 5DF804FB 		ldr	pc, [sp], #4
 190              	.L17:
 191              		.cfi_restore_state
 192 001e FFF7FEFF 		bl	__stack_chk_fail
 193              	.LVL6:
 194              	.L19:
 195 0022 00BF     		.align	2
 196              	.L18:
 197 0024 00000000 		.word	__stack_chk_guard
 198 0028 00000000 		.word	.LANCHOR1
 199              		.cfi_endproc
 200              	.LFE261:
 201              		.size	get_distance, .-get_distance
 202              		.section	.bss.waDistance,"aw",%nobits
 203              		.align	3
 204              		.set	.LANCHOR2,. + 0
 205              		.type	waDistance, %object
 206              		.size	waDistance, 632
 207              	waDistance:
 208 0000 00000000 		.space	632
 208      00000000 
 208      00000000 
 208      00000000 
 208      00000000 
 209              		.section	.data.distance,"aw",%progbits
 210              		.align	1
 211              		.set	.LANCHOR1,. + 0
 212              		.type	distance, %object
 213              		.size	distance, 2
 214              	distance:
 215 0000 6400     		.short	100
 216              		.section	.rodata.__FUNCTION__.12856,"a",%progbits
 217              		.align	2
 218              		.set	.LANCHOR0,. + 0
 219              		.type	__FUNCTION__.12856, %object
 220              		.size	__FUNCTION__.12856, 9
 221              	__FUNCTION__.12856:
 222 0000 44697374 		.ascii	"Distance\000"
 222      616E6365 
 222      00
ARM GAS  C:\Users\noeta\AppData\Local\Temp\ccRidrRf.s 			page 5


 223              		.text
 224              	.Letext0:
 225              		.file 3 "c:\\users\\noeta\\downloads\\eclipse_e-puck2\\tools\\gcc-arm-none-eabi-7-2017-q4-major-wi
 226              		.file 4 "c:\\users\\noeta\\downloads\\eclipse_e-puck2\\tools\\gcc-arm-none-eabi-7-2017-q4-major-wi
 227              		.file 5 "c:\\users\\noeta\\downloads\\eclipse_e-puck2\\tools\\gcc-arm-none-eabi-7-2017-q4-major-wi
 228              		.file 6 "../lib/e-puck2_main-processor/ChibiOS//os/rt/ports/ARMCMx/compilers/GCC/chtypes.h"
 229              		.file 7 "../lib/e-puck2_main-processor/ChibiOS//os/rt/include/chsystypes.h"
 230              		.file 8 "../lib/e-puck2_main-processor/ChibiOS//os/rt/include/chschd.h"
 231              		.file 9 "../lib/e-puck2_main-processor/ChibiOS//os/ext/CMSIS/include/core_cm4.h"
 232              		.file 10 "../lib/e-puck2_main-processor/ChibiOS//os/ext/CMSIS/ST/system_stm32f4xx.h"
 233              		.file 11 "../lib/e-puck2_main-processor/ChibiOS//os/ext/CMSIS/ST/stm32f407xx.h"
 234              		.file 12 "../lib/e-puck2_main-processor/ChibiOS//os/rt/ports/ARMCMx/chcore.h"
 235              		.file 13 "../lib/e-puck2_main-processor/ChibiOS//os/rt/ports/ARMCMx/chcore_v7m.h"
 236              		.file 14 "../lib/e-puck2_main-processor/ChibiOS//os/rt/include/chdebug.h"
 237              		.file 15 "../lib/e-puck2_main-processor/ChibiOS//os/rt/include/chtm.h"
 238              		.file 16 "../lib/e-puck2_main-processor/ChibiOS//os/rt/include/chstats.h"
 239              		.file 17 "../lib/e-puck2_main-processor/ChibiOS//os/rt/include/chsem.h"
 240              		.file 18 "../lib/e-puck2_main-processor/ChibiOS//os/rt/include/chmtx.h"
 241              		.file 19 "../lib/e-puck2_main-processor/ChibiOS//os/rt/include/chevents.h"
 242              		.file 20 "../lib/e-puck2_main-processor/ChibiOS//os/rt/include/chqueues.h"
 243              		.file 21 "../lib/e-puck2_main-processor/ChibiOS//os/hal/ports/STM32/STM32F4xx/stm32_dma.h"
 244              		.file 22 "../lib/e-puck2_main-processor/ChibiOS//os/hal/include/hal_ioblock.h"
 245              		.file 23 "../lib/e-puck2_main-processor/ChibiOS//os/hal/ports/STM32/LLD/GPIOv2/pal_lld.h"
 246              		.file 24 "../lib/e-puck2_main-processor/ChibiOS//os/hal/include/adc.h"
 247              		.file 25 "../lib/e-puck2_main-processor/ChibiOS//os/hal/ports/STM32/STM32F4xx/adc_lld.h"
 248              		.file 26 "../lib/e-puck2_main-processor/ChibiOS//os/hal/include/can.h"
 249              		.file 27 "../lib/e-puck2_main-processor/ChibiOS//os/hal/ports/STM32/LLD/can_lld.h"
 250              		.file 28 "../lib/e-puck2_main-processor/ChibiOS//os/hal/include/dac.h"
 251              		.file 29 "../lib/e-puck2_main-processor/ChibiOS//os/hal/ports/STM32/LLD/DACv1/dac_lld.h"
 252              		.file 30 "../lib/e-puck2_main-processor/ChibiOS//os/hal/include/ext.h"
 253              		.file 31 "../lib/e-puck2_main-processor/ChibiOS//os/hal/ports/STM32/LLD/ext_lld.h"
 254              		.file 32 "../lib/e-puck2_main-processor/ChibiOS//os/hal/include/gpt.h"
 255              		.file 33 "../lib/e-puck2_main-processor/ChibiOS//os/hal/ports/STM32/LLD/TIMv1/gpt_lld.h"
 256              		.file 34 "../lib/e-puck2_main-processor/ChibiOS//os/hal/ports/STM32/LLD/TIMv1/stm32_tim.h"
 257              		.file 35 "../lib/e-puck2_main-processor/ChibiOS//os/hal/include/i2c.h"
 258              		.file 36 "../lib/e-puck2_main-processor/ChibiOS//os/hal/ports/STM32/LLD/I2Cv1/i2c_lld.h"
 259              		.file 37 "../lib/e-puck2_main-processor/ChibiOS//os/hal/include/i2s.h"
 260              		.file 38 "../lib/e-puck2_main-processor/ChibiOS//os/hal/ports/STM32/LLD/SPIv1/i2s_lld.h"
 261              		.file 39 "../lib/e-puck2_main-processor/ChibiOS//os/hal/include/pwm.h"
 262              		.file 40 "../lib/e-puck2_main-processor/ChibiOS//os/hal/ports/STM32/LLD/TIMv1/pwm_lld.h"
 263              		.file 41 "../lib/e-puck2_main-processor/ChibiOS//os/hal/include/serial.h"
 264              		.file 42 "../lib/e-puck2_main-processor/ChibiOS//os/hal/ports/STM32/LLD/USARTv1/serial_lld.h"
 265              		.file 43 "../lib/e-puck2_main-processor/ChibiOS//os/hal/include/sdc.h"
 266              		.file 44 "../lib/e-puck2_main-processor/ChibiOS//os/hal/ports/STM32/LLD/sdc_lld.h"
 267              		.file 45 "../lib/e-puck2_main-processor/ChibiOS//os/hal/include/spi.h"
 268              		.file 46 "../lib/e-puck2_main-processor/ChibiOS//os/hal/ports/STM32/LLD/SPIv1/spi_lld.h"
 269              		.file 47 "../lib/e-puck2_main-processor/ChibiOS//os/hal/include/usb.h"
 270              		.file 48 "../lib/e-puck2_main-processor/ChibiOS//os/hal/ports/STM32/LLD/OTGv1/usb_lld.h"
 271              		.file 49 "../lib/e-puck2_main-processor/ChibiOS//os/hal/ports/STM32/LLD/OTGv1/stm32_otg.h"
 272              		.file 50 "../lib/e-puck2_main-processor/ChibiOS_ext/os/hal/include/../ports/STM32/STM32F4xx/dcmi_l
 273              		.file 51 "c:\\users\\noeta\\downloads\\eclipse_e-puck2\\tools\\gcc-arm-none-eabi-7-2017-q4-major-w
 274              		.file 52 "c:\\users\\noeta\\downloads\\eclipse_e-puck2\\tools\\gcc-arm-none-eabi-7-2017-q4-major-w
 275              		.file 53 "c:\\users\\noeta\\downloads\\eclipse_e-puck2\\tools\\gcc-arm-none-eabi-7-2017-q4-major-w
 276              		.file 54 "../lib/e-puck2_main-processor/src/msgbus/messagebus.h"
 277              		.file 55 "c:\\users\\noeta\\downloads\\eclipse_e-puck2\\tools\\gcc-arm-none-eabi-7-2017-q4-major-w
 278              		.file 56 "c:\\users\\noeta\\downloads\\eclipse_e-puck2\\tools\\gcc-arm-none-eabi-7-2017-q4-major-w
 279              		.file 57 "../lib/e-puck2_main-processor/src/parameter/parameter.h"
ARM GAS  C:\Users\noeta\AppData\Local\Temp\ccRidrRf.s 			page 6


 280              		.file 58 "./main.h"
 281              		.file 59 "../lib/e-puck2_main-processor/ChibiOS//os/rt/include/chthreads.h"
 282              		.file 60 "../lib/e-puck2_main-processor/src/sensors\\VL53L0X\\VL53L0X.h"