ARM GAS  C:\Users\noeta\AppData\Local\Temp\ccdNbph8.s 			page 1


   1              		.cpu cortex-m4
   2              		.eabi_attribute 27, 1
   3              		.eabi_attribute 28, 1
   4              		.eabi_attribute 20, 1
   5              		.eabi_attribute 21, 1
   6              		.eabi_attribute 23, 3
   7              		.eabi_attribute 24, 1
   8              		.eabi_attribute 25, 1
   9              		.eabi_attribute 26, 1
  10              		.eabi_attribute 30, 2
  11              		.eabi_attribute 34, 1
  12              		.eabi_attribute 18, 4
  13              		.file	"distance.c"
  14              		.text
  15              	.Ltext0:
  16              		.cfi_sections	.debug_frame
  17              		.section	.text.Distance,"ax",%progbits
  18              		.align	1
  19              		.p2align 4,,15
  20              		.syntax unified
  21              		.thumb
  22              		.thumb_func
  23              		.fpu fpv4-sp-d16
  24              		.type	Distance, %function
  25              	Distance:
  26              	.LFB219:
  27              		.file 1 "distance.c"
  28              		.loc 1 8 0
  29              		.cfi_startproc
  30              		@ Volatile: function does not return.
  31              		@ args = 0, pretend = 0, frame = 8
  32              		@ frame_needed = 0, uses_anonymous_args = 0
  33              	.LVL0:
  34 0000 00B5     		push	{lr}
  35              		.cfi_def_cfa_offset 4
  36              		.cfi_offset 14, -4
  37              	.LBB5:
  38              	.LBB6:
  39              		.file 2 "../lib/e-puck2_main-processor/ChibiOS//os/rt/include/chregistry.h"
  40              		.loc 2 135 0
  41 0002 084A     		ldr	r2, .L6
  42              	.LBE6:
  43              	.LBE5:
  44              		.loc 1 8 0
  45 0004 084B     		ldr	r3, .L6+4
  46              	.LBB9:
  47              	.LBB7:
  48              		.loc 2 135 0
  49 0006 9269     		ldr	r2, [r2, #24]
  50 0008 0849     		ldr	r1, .L6+8
  51              	.LBE7:
  52              	.LBE9:
  53              		.loc 1 8 0
  54 000a 1B68     		ldr	r3, [r3]
  55 000c 084C     		ldr	r4, .L6+12
  56              	.LBB10:
  57              	.LBB8:
ARM GAS  C:\Users\noeta\AppData\Local\Temp\ccdNbph8.s 			page 2


  58              		.loc 2 135 0
  59 000e 9161     		str	r1, [r2, #24]
  60              	.LBE8:
  61              	.LBE10:
  62              		.loc 1 8 0
  63 0010 83B0     		sub	sp, sp, #12
  64              		.cfi_def_cfa_offset 16
  65              		.loc 1 8 0
  66 0012 0193     		str	r3, [sp, #4]
  67              	.LVL1:
  68              	.L2:
  69              	.LBB11:
  70              		.loc 1 14 0 discriminator 1
  71 0014 FFF7FEFF 		bl	VL53L0X_get_dist_mm
  72              	.LVL2:
  73 0018 2080     		strh	r0, [r4]	@ movhi
  74              		.loc 1 15 0 discriminator 1
  75 001a 6420     		movs	r0, #100
  76 001c FFF7FEFF 		bl	chThdSleep
  77              	.LVL3:
  78 0020 F8E7     		b	.L2
  79              	.L7:
  80 0022 00BF     		.align	2
  81              	.L6:
  82 0024 00000000 		.word	ch
  83 0028 00000000 		.word	__stack_chk_guard
  84 002c 00000000 		.word	.LANCHOR0
  85 0030 00000000 		.word	.LANCHOR1
  86              	.LBE11:
  87              		.cfi_endproc
  88              	.LFE219:
  89              		.size	Distance, .-Distance
  90              		.section	.text.distance_start,"ax",%progbits
  91              		.align	1
  92              		.p2align 4,,15
  93              		.global	distance_start
  94              		.syntax unified
  95              		.thumb
  96              		.thumb_func
  97              		.fpu fpv4-sp-d16
  98              		.type	distance_start, %function
  99              	distance_start:
 100              	.LFB220:
 101              		.loc 1 19 0
 102              		.cfi_startproc
 103              		@ args = 0, pretend = 0, frame = 8
 104              		@ frame_needed = 0, uses_anonymous_args = 0
 105 0000 10B5     		push	{r4, lr}
 106              		.cfi_def_cfa_offset 8
 107              		.cfi_offset 4, -8
 108              		.cfi_offset 14, -4
 109 0002 0A4C     		ldr	r4, .L12
 110              		.loc 1 20 0
 111 0004 0A4B     		ldr	r3, .L12+4
 112              		.loc 1 19 0
 113 0006 2268     		ldr	r2, [r4]
 114              		.loc 1 20 0
ARM GAS  C:\Users\noeta\AppData\Local\Temp\ccdNbph8.s 			page 3


 115 0008 0A48     		ldr	r0, .L12+8
 116              		.loc 1 19 0
 117 000a 84B0     		sub	sp, sp, #16
 118              		.cfi_def_cfa_offset 24
 119              		.loc 1 20 0
 120 000c 4FF41E71 		mov	r1, #632
 121              		.loc 1 19 0
 122 0010 0392     		str	r2, [sp, #12]
 123              		.loc 1 20 0
 124 0012 0022     		movs	r2, #0
 125 0014 0092     		str	r2, [sp]
 126 0016 4022     		movs	r2, #64
 127 0018 FFF7FEFF 		bl	chThdCreateStatic
 128              	.LVL4:
 129              		.loc 1 21 0
 130 001c 039A     		ldr	r2, [sp, #12]
 131 001e 2368     		ldr	r3, [r4]
 132 0020 9A42     		cmp	r2, r3
 133 0022 01D1     		bne	.L11
 134 0024 04B0     		add	sp, sp, #16
 135              		.cfi_remember_state
 136              		.cfi_def_cfa_offset 8
 137              		@ sp needed
 138 0026 10BD     		pop	{r4, pc}
 139              	.L11:
 140              		.cfi_restore_state
 141 0028 FFF7FEFF 		bl	__stack_chk_fail
 142              	.LVL5:
 143              	.L13:
 144              		.align	2
 145              	.L12:
 146 002c 00000000 		.word	__stack_chk_guard
 147 0030 00000000 		.word	Distance
 148 0034 00000000 		.word	.LANCHOR2
 149              		.cfi_endproc
 150              	.LFE220:
 151              		.size	distance_start, .-distance_start
 152              		.section	.text.get_distance,"ax",%progbits
 153              		.align	1
 154              		.p2align 4,,15
 155              		.global	get_distance
 156              		.syntax unified
 157              		.thumb
 158              		.thumb_func
 159              		.fpu fpv4-sp-d16
 160              		.type	get_distance, %function
 161              	get_distance:
 162              	.LFB221:
 163              		.loc 1 23 0
 164              		.cfi_startproc
 165              		@ args = 0, pretend = 0, frame = 8
 166              		@ frame_needed = 0, uses_anonymous_args = 0
 167 0000 00B5     		push	{lr}
 168              		.cfi_def_cfa_offset 4
 169              		.cfi_offset 14, -4
 170 0002 084B     		ldr	r3, .L18
 171              		.loc 1 24 0
ARM GAS  C:\Users\noeta\AppData\Local\Temp\ccdNbph8.s 			page 4


 172 0004 0849     		ldr	r1, .L18+4
 173              		.loc 1 23 0
 174 0006 1A68     		ldr	r2, [r3]
 175              		.loc 1 25 0
 176 0008 B1F90000 		ldrsh	r0, [r1]
 177              		.loc 1 23 0
 178 000c 83B0     		sub	sp, sp, #12
 179              		.cfi_def_cfa_offset 16
 180              		.loc 1 23 0
 181 000e 0192     		str	r2, [sp, #4]
 182              		.loc 1 25 0
 183 0010 019A     		ldr	r2, [sp, #4]
 184 0012 1B68     		ldr	r3, [r3]
 185 0014 9A42     		cmp	r2, r3
 186 0016 02D1     		bne	.L17
 187 0018 03B0     		add	sp, sp, #12
 188              		.cfi_remember_state
 189              		.cfi_def_cfa_offset 4
 190              		@ sp needed
 191 001a 5DF804FB 		ldr	pc, [sp], #4
 192              	.L17:
 193              		.cfi_restore_state
 194 001e FFF7FEFF 		bl	__stack_chk_fail
 195              	.LVL6:
 196              	.L19:
 197 0022 00BF     		.align	2
 198              	.L18:
 199 0024 00000000 		.word	__stack_chk_guard
 200 0028 00000000 		.word	.LANCHOR1
 201              		.cfi_endproc
 202              	.LFE221:
 203              		.size	get_distance, .-get_distance
 204              		.section	.bss.waDistance,"aw",%nobits
 205              		.align	3
 206              		.set	.LANCHOR2,. + 0
 207              		.type	waDistance, %object
 208              		.size	waDistance, 632
 209              	waDistance:
 210 0000 00000000 		.space	632
 210      00000000 
 210      00000000 
 210      00000000 
 210      00000000 
 211              		.section	.data.distance,"aw",%progbits
 212              		.align	1
 213              		.set	.LANCHOR1,. + 0
 214              		.type	distance, %object
 215              		.size	distance, 2
 216              	distance:
 217 0000 6400     		.short	100
 218              		.section	.rodata.__FUNCTION__.7855,"a",%progbits
 219              		.align	2
 220              		.set	.LANCHOR0,. + 0
 221              		.type	__FUNCTION__.7855, %object
 222              		.size	__FUNCTION__.7855, 9
 223              	__FUNCTION__.7855:
 224 0000 44697374 		.ascii	"Distance\000"
ARM GAS  C:\Users\noeta\AppData\Local\Temp\ccdNbph8.s 			page 5


 224      616E6365 
 224      00
 225              		.text
 226              	.Letext0:
 227              		.file 3 "c:\\users\\noeta\\downloads\\eclipse_e-puck2\\tools\\gcc-arm-none-eabi-7-2017-q4-major-wi
 228              		.file 4 "c:\\users\\noeta\\downloads\\eclipse_e-puck2\\tools\\gcc-arm-none-eabi-7-2017-q4-major-wi
 229              		.file 5 "c:\\users\\noeta\\downloads\\eclipse_e-puck2\\tools\\gcc-arm-none-eabi-7-2017-q4-major-wi
 230              		.file 6 "../lib/e-puck2_main-processor/ChibiOS//os/rt/ports/ARMCMx/compilers/GCC/chtypes.h"
 231              		.file 7 "../lib/e-puck2_main-processor/ChibiOS//os/rt/include/chsystypes.h"
 232              		.file 8 "../lib/e-puck2_main-processor/ChibiOS//os/rt/include/chschd.h"
 233              		.file 9 "../lib/e-puck2_main-processor/ChibiOS//os/ext/CMSIS/include/core_cm4.h"
 234              		.file 10 "../lib/e-puck2_main-processor/ChibiOS//os/ext/CMSIS/ST/system_stm32f4xx.h"
 235              		.file 11 "../lib/e-puck2_main-processor/ChibiOS//os/rt/ports/ARMCMx/chcore.h"
 236              		.file 12 "../lib/e-puck2_main-processor/ChibiOS//os/rt/ports/ARMCMx/chcore_v7m.h"
 237              		.file 13 "../lib/e-puck2_main-processor/ChibiOS//os/rt/include/chdebug.h"
 238              		.file 14 "../lib/e-puck2_main-processor/ChibiOS//os/rt/include/chtm.h"
 239              		.file 15 "../lib/e-puck2_main-processor/ChibiOS//os/rt/include/chstats.h"
 240              		.file 16 "../lib/e-puck2_main-processor/ChibiOS//os/rt/include/chsem.h"
 241              		.file 17 "../lib/e-puck2_main-processor/ChibiOS//os/rt/include/chmtx.h"
 242              		.file 18 "../lib/e-puck2_main-processor/ChibiOS//os/rt/include/chthreads.h"
 243              		.section	.debug_info,"",%progbits
 244              	.Ldebug_info0:
 245 0000 9D0B0000 		.4byte	0xb9d
 246 0004 0400     		.2byte	0x4
 247 0006 00000000 		.4byte	.Ldebug_abbrev0
 248 000a 04       		.byte	0x4
 249 000b 01       		.uleb128 0x1
 250 000c A0020000 		.4byte	.LASF164
 251 0010 0C       		.byte	0xc
 252 0011 2C080000 		.4byte	.LASF165
 253 0015 1D020000 		.4byte	.LASF166
 254 0019 20000000 		.4byte	.Ldebug_ranges0+0x20
 255 001d 00000000 		.4byte	0
 256 0021 00000000 		.4byte	.Ldebug_line0
 257 0025 02       		.uleb128 0x2
 258 0026 01       		.byte	0x1
 259 0027 06       		.byte	0x6
 260 0028 3E010000 		.4byte	.LASF0
 261 002c 03       		.uleb128 0x3
 262 002d 46000000 		.4byte	.LASF2
 263 0031 03       		.byte	0x3
 264 0032 2B       		.byte	0x2b
 265 0033 37000000 		.4byte	0x37
 266 0037 02       		.uleb128 0x2
 267 0038 01       		.byte	0x1
 268 0039 08       		.byte	0x8
 269 003a 29060000 		.4byte	.LASF1
 270 003e 03       		.uleb128 0x3
 271 003f 03020000 		.4byte	.LASF3
 272 0043 03       		.byte	0x3
 273 0044 37       		.byte	0x37
 274 0045 49000000 		.4byte	0x49
 275 0049 02       		.uleb128 0x2
 276 004a 02       		.byte	0x2
 277 004b 05       		.byte	0x5
 278 004c 41060000 		.4byte	.LASF4
 279 0050 03       		.uleb128 0x3
ARM GAS  C:\Users\noeta\AppData\Local\Temp\ccdNbph8.s 			page 6


 280 0051 4E070000 		.4byte	.LASF5
 281 0055 03       		.byte	0x3
 282 0056 39       		.byte	0x39
 283 0057 5B000000 		.4byte	0x5b
 284 005b 02       		.uleb128 0x2
 285 005c 02       		.byte	0x2
 286 005d 07       		.byte	0x7
 287 005e 46040000 		.4byte	.LASF6
 288 0062 03       		.uleb128 0x3
 289 0063 C1040000 		.4byte	.LASF7
 290 0067 03       		.byte	0x3
 291 0068 4D       		.byte	0x4d
 292 0069 6D000000 		.4byte	0x6d
 293 006d 02       		.uleb128 0x2
 294 006e 04       		.byte	0x4
 295 006f 05       		.byte	0x5
 296 0070 98010000 		.4byte	.LASF8
 297 0074 03       		.uleb128 0x3
 298 0075 8C070000 		.4byte	.LASF9
 299 0079 03       		.byte	0x3
 300 007a 4F       		.byte	0x4f
 301 007b 7F000000 		.4byte	0x7f
 302 007f 02       		.uleb128 0x2
 303 0080 04       		.byte	0x4
 304 0081 07       		.byte	0x7
 305 0082 30070000 		.4byte	.LASF10
 306 0086 02       		.uleb128 0x2
 307 0087 08       		.byte	0x8
 308 0088 05       		.byte	0x5
 309 0089 30010000 		.4byte	.LASF11
 310 008d 03       		.uleb128 0x3
 311 008e BB050000 		.4byte	.LASF12
 312 0092 03       		.byte	0x3
 313 0093 69       		.byte	0x69
 314 0094 98000000 		.4byte	0x98
 315 0098 02       		.uleb128 0x2
 316 0099 08       		.byte	0x8
 317 009a 07       		.byte	0x7
 318 009b 95000000 		.4byte	.LASF13
 319 009f 04       		.uleb128 0x4
 320 00a0 04       		.byte	0x4
 321 00a1 05       		.byte	0x5
 322 00a2 696E7400 		.ascii	"int\000"
 323 00a6 02       		.uleb128 0x2
 324 00a7 04       		.byte	0x4
 325 00a8 07       		.byte	0x7
 326 00a9 93020000 		.4byte	.LASF14
 327 00ad 03       		.uleb128 0x3
 328 00ae 03080000 		.4byte	.LASF15
 329 00b2 04       		.byte	0x4
 330 00b3 18       		.byte	0x18
 331 00b4 2C000000 		.4byte	0x2c
 332 00b8 03       		.uleb128 0x3
 333 00b9 20010000 		.4byte	.LASF16
 334 00bd 04       		.byte	0x4
 335 00be 20       		.byte	0x20
 336 00bf 3E000000 		.4byte	0x3e
ARM GAS  C:\Users\noeta\AppData\Local\Temp\ccdNbph8.s 			page 7


 337 00c3 03       		.uleb128 0x3
 338 00c4 E4030000 		.4byte	.LASF17
 339 00c8 04       		.byte	0x4
 340 00c9 24       		.byte	0x24
 341 00ca 50000000 		.4byte	0x50
 342 00ce 03       		.uleb128 0x3
 343 00cf 21060000 		.4byte	.LASF18
 344 00d3 04       		.byte	0x4
 345 00d4 2C       		.byte	0x2c
 346 00d5 62000000 		.4byte	0x62
 347 00d9 05       		.uleb128 0x5
 348 00da CE000000 		.4byte	0xce
 349 00de 03       		.uleb128 0x3
 350 00df FB060000 		.4byte	.LASF19
 351 00e3 04       		.byte	0x4
 352 00e4 30       		.byte	0x30
 353 00e5 74000000 		.4byte	0x74
 354 00e9 03       		.uleb128 0x3
 355 00ea 30000000 		.4byte	.LASF20
 356 00ee 04       		.byte	0x4
 357 00ef 3C       		.byte	0x3c
 358 00f0 8D000000 		.4byte	0x8d
 359 00f4 03       		.uleb128 0x3
 360 00f5 22000000 		.4byte	.LASF21
 361 00f9 05       		.byte	0x5
 362 00fa D8       		.byte	0xd8
 363 00fb A6000000 		.4byte	0xa6
 364 00ff 02       		.uleb128 0x2
 365 0100 08       		.byte	0x8
 366 0101 04       		.byte	0x4
 367 0102 4A050000 		.4byte	.LASF22
 368 0106 03       		.uleb128 0x3
 369 0107 17050000 		.4byte	.LASF23
 370 010b 06       		.byte	0x6
 371 010c 45       		.byte	0x45
 372 010d DE000000 		.4byte	0xde
 373 0111 03       		.uleb128 0x3
 374 0112 03010000 		.4byte	.LASF24
 375 0116 06       		.byte	0x6
 376 0117 46       		.byte	0x46
 377 0118 E9000000 		.4byte	0xe9
 378 011c 03       		.uleb128 0x3
 379 011d 72060000 		.4byte	.LASF25
 380 0121 06       		.byte	0x6
 381 0122 48       		.byte	0x48
 382 0123 AD000000 		.4byte	0xad
 383 0127 03       		.uleb128 0x3
 384 0128 A1010000 		.4byte	.LASF26
 385 012c 06       		.byte	0x6
 386 012d 49       		.byte	0x49
 387 012e AD000000 		.4byte	0xad
 388 0132 03       		.uleb128 0x3
 389 0133 DC050000 		.4byte	.LASF27
 390 0137 06       		.byte	0x6
 391 0138 4A       		.byte	0x4a
 392 0139 AD000000 		.4byte	0xad
 393 013d 03       		.uleb128 0x3
ARM GAS  C:\Users\noeta\AppData\Local\Temp\ccdNbph8.s 			page 8


 394 013e 7E010000 		.4byte	.LASF28
 395 0142 06       		.byte	0x6
 396 0143 4B       		.byte	0x4b
 397 0144 AD000000 		.4byte	0xad
 398 0148 03       		.uleb128 0x3
 399 0149 10060000 		.4byte	.LASF29
 400 014d 06       		.byte	0x6
 401 014e 4C       		.byte	0x4c
 402 014f DE000000 		.4byte	0xde
 403 0153 03       		.uleb128 0x3
 404 0154 72040000 		.4byte	.LASF30
 405 0158 06       		.byte	0x6
 406 0159 4D       		.byte	0x4d
 407 015a CE000000 		.4byte	0xce
 408 015e 03       		.uleb128 0x3
 409 015f B5040000 		.4byte	.LASF31
 410 0163 06       		.byte	0x6
 411 0164 4F       		.byte	0x4f
 412 0165 DE000000 		.4byte	0xde
 413 0169 03       		.uleb128 0x3
 414 016a 82020000 		.4byte	.LASF32
 415 016e 06       		.byte	0x6
 416 016f 51       		.byte	0x51
 417 0170 CE000000 		.4byte	0xce
 418 0174 03       		.uleb128 0x3
 419 0175 7D040000 		.4byte	.LASF33
 420 0179 06       		.byte	0x6
 421 017a 52       		.byte	0x52
 422 017b DE000000 		.4byte	0xde
 423 017f 03       		.uleb128 0x3
 424 0180 6E070000 		.4byte	.LASF34
 425 0184 07       		.byte	0x7
 426 0185 33       		.byte	0x33
 427 0186 DE000000 		.4byte	0xde
 428 018a 05       		.uleb128 0x5
 429 018b 7F010000 		.4byte	0x17f
 430 018f 03       		.uleb128 0x3
 431 0190 59070000 		.4byte	.LASF35
 432 0194 07       		.byte	0x7
 433 0195 3F       		.byte	0x3f
 434 0196 9A010000 		.4byte	0x19a
 435 019a 06       		.uleb128 0x6
 436 019b 68040000 		.4byte	.LASF59
 437 019f 68       		.byte	0x68
 438 01a0 08       		.byte	0x8
 439 01a1 C2       		.byte	0xc2
 440 01a2 B8020000 		.4byte	0x2b8
 441 01a6 07       		.uleb128 0x7
 442 01a7 6B060000 		.4byte	.LASF36
 443 01ab 08       		.byte	0x8
 444 01ac C3       		.byte	0xc3
 445 01ad C3020000 		.4byte	0x2c3
 446 01b1 00       		.byte	0
 447 01b2 07       		.uleb128 0x7
 448 01b3 09060000 		.4byte	.LASF37
 449 01b7 08       		.byte	0x8
 450 01b8 C5       		.byte	0xc5
ARM GAS  C:\Users\noeta\AppData\Local\Temp\ccdNbph8.s 			page 9


 451 01b9 C3020000 		.4byte	0x2c3
 452 01bd 04       		.byte	0x4
 453 01be 07       		.uleb128 0x7
 454 01bf 0C010000 		.4byte	.LASF38
 455 01c3 08       		.byte	0x8
 456 01c4 C7       		.byte	0xc7
 457 01c5 48010000 		.4byte	0x148
 458 01c9 08       		.byte	0x8
 459 01ca 07       		.uleb128 0x7
 460 01cb 92050000 		.4byte	.LASF39
 461 01cf 08       		.byte	0x8
 462 01d0 C8       		.byte	0xc8
 463 01d1 3C050000 		.4byte	0x53c
 464 01d5 0C       		.byte	0xc
 465 01d6 07       		.uleb128 0x7
 466 01d7 C3010000 		.4byte	.LASF40
 467 01db 08       		.byte	0x8
 468 01dc CA       		.byte	0xca
 469 01dd C3020000 		.4byte	0x2c3
 470 01e1 10       		.byte	0x10
 471 01e2 07       		.uleb128 0x7
 472 01e3 84050000 		.4byte	.LASF41
 473 01e7 08       		.byte	0x8
 474 01e8 CB       		.byte	0xcb
 475 01e9 C3020000 		.4byte	0x2c3
 476 01ed 14       		.byte	0x14
 477 01ee 07       		.uleb128 0x7
 478 01ef 25080000 		.4byte	.LASF42
 479 01f3 08       		.byte	0x8
 480 01f4 D2       		.byte	0xd2
 481 01f5 B2080000 		.4byte	0x8b2
 482 01f9 18       		.byte	0x18
 483 01fa 07       		.uleb128 0x7
 484 01fb 88020000 		.4byte	.LASF43
 485 01ff 08       		.byte	0x8
 486 0200 D8       		.byte	0xd8
 487 0201 C9080000 		.4byte	0x8c9
 488 0205 1C       		.byte	0x1c
 489 0206 07       		.uleb128 0x7
 490 0207 4B060000 		.4byte	.LASF44
 491 020b 08       		.byte	0x8
 492 020c DD       		.byte	0xdd
 493 020d 27010000 		.4byte	0x127
 494 0211 20       		.byte	0x20
 495 0212 07       		.uleb128 0x7
 496 0213 89060000 		.4byte	.LASF45
 497 0217 08       		.byte	0x8
 498 0218 E1       		.byte	0xe1
 499 0219 1C010000 		.4byte	0x11c
 500 021d 21       		.byte	0x21
 501 021e 07       		.uleb128 0x7
 502 021f DA070000 		.4byte	.LASF46
 503 0223 08       		.byte	0x8
 504 0224 E6       		.byte	0xe6
 505 0225 32010000 		.4byte	0x132
 506 0229 22       		.byte	0x22
 507 022a 07       		.uleb128 0x7
ARM GAS  C:\Users\noeta\AppData\Local\Temp\ccdNbph8.s 			page 10


 508 022b 53060000 		.4byte	.LASF47
 509 022f 08       		.byte	0x8
 510 0230 EC       		.byte	0xec
 511 0231 3D010000 		.4byte	0x13d
 512 0235 23       		.byte	0x23
 513 0236 07       		.uleb128 0x7
 514 0237 FD030000 		.4byte	.LASF48
 515 023b 08       		.byte	0x8
 516 023c F3       		.byte	0xf3
 517 023d 8A010000 		.4byte	0x18a
 518 0241 24       		.byte	0x24
 519 0242 08       		.uleb128 0x8
 520 0243 705F7500 		.ascii	"p_u\000"
 521 0247 08       		.byte	0x8
 522 0248 3101     		.2byte	0x131
 523 024a E1070000 		.4byte	0x7e1
 524 024e 28       		.byte	0x28
 525 024f 09       		.uleb128 0x9
 526 0250 0D050000 		.4byte	.LASF49
 527 0254 08       		.byte	0x8
 528 0255 3601     		.2byte	0x136
 529 0257 C9020000 		.4byte	0x2c9
 530 025b 2C       		.byte	0x2c
 531 025c 09       		.uleb128 0x9
 532 025d 14040000 		.4byte	.LASF50
 533 0261 08       		.byte	0x8
 534 0262 3C01     		.2byte	0x13c
 535 0264 ED020000 		.4byte	0x2ed
 536 0268 30       		.byte	0x30
 537 0269 09       		.uleb128 0x9
 538 026a B0070000 		.4byte	.LASF51
 539 026e 08       		.byte	0x8
 540 026f 4001     		.2byte	0x140
 541 0271 53010000 		.4byte	0x153
 542 0275 38       		.byte	0x38
 543 0276 09       		.uleb128 0x9
 544 0277 E5060000 		.4byte	.LASF52
 545 027b 08       		.byte	0x8
 546 027c 4601     		.2byte	0x146
 547 027e 5E010000 		.4byte	0x15e
 548 0282 3C       		.byte	0x3c
 549 0283 09       		.uleb128 0x9
 550 0284 37060000 		.4byte	.LASF53
 551 0288 08       		.byte	0x8
 552 0289 4D01     		.2byte	0x14d
 553 028b AC080000 		.4byte	0x8ac
 554 028f 40       		.byte	0x40
 555 0290 09       		.uleb128 0x9
 556 0291 78070000 		.4byte	.LASF54
 557 0295 08       		.byte	0x8
 558 0296 5101     		.2byte	0x151
 559 0298 48010000 		.4byte	0x148
 560 029c 44       		.byte	0x44
 561 029d 09       		.uleb128 0x9
 562 029e 67010000 		.4byte	.LASF55
 563 02a2 08       		.byte	0x8
 564 02a3 5801     		.2byte	0x158
ARM GAS  C:\Users\noeta\AppData\Local\Temp\ccdNbph8.s 			page 11


 565 02a5 A0030000 		.4byte	0x3a0
 566 02a9 48       		.byte	0x48
 567 02aa 09       		.uleb128 0x9
 568 02ab 91060000 		.4byte	.LASF56
 569 02af 08       		.byte	0x8
 570 02b0 5E01     		.2byte	0x15e
 571 02b2 92070000 		.4byte	0x792
 572 02b6 50       		.byte	0x50
 573 02b7 00       		.byte	0
 574 02b8 03       		.uleb128 0x3
 575 02b9 0B080000 		.4byte	.LASF57
 576 02bd 07       		.byte	0x7
 577 02be 44       		.byte	0x44
 578 02bf C3020000 		.4byte	0x2c3
 579 02c3 0A       		.uleb128 0xa
 580 02c4 04       		.byte	0x4
 581 02c5 8F010000 		.4byte	0x18f
 582 02c9 03       		.uleb128 0x3
 583 02ca EA040000 		.4byte	.LASF58
 584 02ce 07       		.byte	0x7
 585 02cf 49       		.byte	0x49
 586 02d0 D4020000 		.4byte	0x2d4
 587 02d4 06       		.uleb128 0x6
 588 02d5 18070000 		.4byte	.LASF60
 589 02d9 04       		.byte	0x4
 590 02da 08       		.byte	0x8
 591 02db B0       		.byte	0xb0
 592 02dc ED020000 		.4byte	0x2ed
 593 02e0 07       		.uleb128 0x7
 594 02e1 6B060000 		.4byte	.LASF36
 595 02e5 08       		.byte	0x8
 596 02e6 B1       		.byte	0xb1
 597 02e7 C3020000 		.4byte	0x2c3
 598 02eb 00       		.byte	0
 599 02ec 00       		.byte	0
 600 02ed 03       		.uleb128 0x3
 601 02ee 99060000 		.4byte	.LASF61
 602 02f2 07       		.byte	0x7
 603 02f3 50       		.byte	0x50
 604 02f4 F8020000 		.4byte	0x2f8
 605 02f8 06       		.uleb128 0x6
 606 02f9 5C000000 		.4byte	.LASF62
 607 02fd 08       		.byte	0x8
 608 02fe 08       		.byte	0x8
 609 02ff B7       		.byte	0xb7
 610 0300 1D030000 		.4byte	0x31d
 611 0304 07       		.uleb128 0x7
 612 0305 6B060000 		.4byte	.LASF36
 613 0309 08       		.byte	0x8
 614 030a B8       		.byte	0xb8
 615 030b C3020000 		.4byte	0x2c3
 616 030f 00       		.byte	0
 617 0310 07       		.uleb128 0x7
 618 0311 09060000 		.4byte	.LASF37
 619 0315 08       		.byte	0x8
 620 0316 B9       		.byte	0xb9
 621 0317 C3020000 		.4byte	0x2c3
ARM GAS  C:\Users\noeta\AppData\Local\Temp\ccdNbph8.s 			page 12


 622 031b 04       		.byte	0x4
 623 031c 00       		.byte	0
 624 031d 03       		.uleb128 0x3
 625 031e 0D000000 		.4byte	.LASF63
 626 0322 07       		.byte	0x7
 627 0323 57       		.byte	0x57
 628 0324 28030000 		.4byte	0x328
 629 0328 0B       		.uleb128 0xb
 630 0329 A7040000 		.4byte	.LASF64
 631 032d 1C       		.byte	0x1c
 632 032e 08       		.byte	0x8
 633 032f 9001     		.2byte	0x190
 634 0331 84030000 		.4byte	0x384
 635 0335 09       		.uleb128 0x9
 636 0336 10070000 		.4byte	.LASF65
 637 033a 08       		.byte	0x8
 638 033b 9101     		.2byte	0x191
 639 033d ED020000 		.4byte	0x2ed
 640 0341 00       		.byte	0
 641 0342 09       		.uleb128 0x9
 642 0343 5D060000 		.4byte	.LASF66
 643 0347 08       		.byte	0x8
 644 0348 9201     		.2byte	0x192
 645 034a 48010000 		.4byte	0x148
 646 034e 08       		.byte	0x8
 647 034f 09       		.uleb128 0x9
 648 0350 8C050000 		.4byte	.LASF67
 649 0354 08       		.byte	0x8
 650 0355 9401     		.2byte	0x194
 651 0357 3C050000 		.4byte	0x53c
 652 035b 0C       		.byte	0xc
 653 035c 09       		.uleb128 0x9
 654 035d DB010000 		.4byte	.LASF68
 655 0361 08       		.byte	0x8
 656 0362 9701     		.2byte	0x197
 657 0364 C3020000 		.4byte	0x2c3
 658 0368 10       		.byte	0x10
 659 0369 09       		.uleb128 0x9
 660 036a B3050000 		.4byte	.LASF69
 661 036e 08       		.byte	0x8
 662 036f 9801     		.2byte	0x198
 663 0371 C3020000 		.4byte	0x2c3
 664 0375 14       		.byte	0x14
 665 0376 09       		.uleb128 0x9
 666 0377 A9050000 		.4byte	.LASF70
 667 037b 08       		.byte	0x8
 668 037c 9B01     		.2byte	0x19b
 669 037e C3020000 		.4byte	0x2c3
 670 0382 18       		.byte	0x18
 671 0383 00       		.byte	0
 672 0384 03       		.uleb128 0x3
 673 0385 83070000 		.4byte	.LASF71
 674 0389 07       		.byte	0x7
 675 038a 5C       		.byte	0x5c
 676 038b 8F030000 		.4byte	0x38f
 677 038f 0A       		.uleb128 0xa
 678 0390 04       		.byte	0x4
ARM GAS  C:\Users\noeta\AppData\Local\Temp\ccdNbph8.s 			page 13


 679 0391 95030000 		.4byte	0x395
 680 0395 0C       		.uleb128 0xc
 681 0396 A0030000 		.4byte	0x3a0
 682 039a 0D       		.uleb128 0xd
 683 039b A0030000 		.4byte	0x3a0
 684 039f 00       		.byte	0
 685 03a0 0E       		.uleb128 0xe
 686 03a1 04       		.byte	0x4
 687 03a2 03       		.uleb128 0x3
 688 03a3 F9050000 		.4byte	.LASF72
 689 03a7 07       		.byte	0x7
 690 03a8 61       		.byte	0x61
 691 03a9 AD030000 		.4byte	0x3ad
 692 03ad 0B       		.uleb128 0xb
 693 03ae A9060000 		.4byte	.LASF73
 694 03b2 14       		.byte	0x14
 695 03b3 08       		.byte	0x8
 696 03b4 6B01     		.2byte	0x16b
 697 03b6 FC030000 		.4byte	0x3fc
 698 03ba 09       		.uleb128 0x9
 699 03bb 62020000 		.4byte	.LASF74
 700 03bf 08       		.byte	0x8
 701 03c0 6C01     		.2byte	0x16c
 702 03c2 CF080000 		.4byte	0x8cf
 703 03c6 00       		.byte	0
 704 03c7 09       		.uleb128 0x9
 705 03c8 FB010000 		.4byte	.LASF75
 706 03cc 08       		.byte	0x8
 707 03cd 6D01     		.2byte	0x16d
 708 03cf CF080000 		.4byte	0x8cf
 709 03d3 04       		.byte	0x4
 710 03d4 09       		.uleb128 0x9
 711 03d5 0B040000 		.4byte	.LASF76
 712 03d9 08       		.byte	0x8
 713 03da 6E01     		.2byte	0x16e
 714 03dc 7F010000 		.4byte	0x17f
 715 03e0 08       		.byte	0x8
 716 03e1 09       		.uleb128 0x9
 717 03e2 98080000 		.4byte	.LASF77
 718 03e6 08       		.byte	0x8
 719 03e7 6F01     		.2byte	0x16f
 720 03e9 84030000 		.4byte	0x384
 721 03ed 0C       		.byte	0xc
 722 03ee 09       		.uleb128 0x9
 723 03ef BF070000 		.4byte	.LASF78
 724 03f3 08       		.byte	0x8
 725 03f4 7101     		.2byte	0x171
 726 03f6 A0030000 		.4byte	0x3a0
 727 03fa 10       		.byte	0x10
 728 03fb 00       		.byte	0
 729 03fc 03       		.uleb128 0x3
 730 03fd E0000000 		.4byte	.LASF79
 731 0401 07       		.byte	0x7
 732 0402 66       		.byte	0x66
 733 0403 07040000 		.4byte	0x407
 734 0407 0B       		.uleb128 0xb
 735 0408 1F050000 		.4byte	.LASF80
ARM GAS  C:\Users\noeta\AppData\Local\Temp\ccdNbph8.s 			page 14


 736 040c 10       		.byte	0x10
 737 040d 08       		.byte	0x8
 738 040e 7B01     		.2byte	0x17b
 739 0410 49040000 		.4byte	0x449
 740 0414 09       		.uleb128 0x9
 741 0415 62020000 		.4byte	.LASF74
 742 0419 08       		.byte	0x8
 743 041a 7C01     		.2byte	0x17c
 744 041c CF080000 		.4byte	0x8cf
 745 0420 00       		.byte	0
 746 0421 09       		.uleb128 0x9
 747 0422 FB010000 		.4byte	.LASF75
 748 0426 08       		.byte	0x8
 749 0427 7E01     		.2byte	0x17e
 750 0429 CF080000 		.4byte	0x8cf
 751 042d 04       		.byte	0x4
 752 042e 09       		.uleb128 0x9
 753 042f 0B040000 		.4byte	.LASF76
 754 0433 08       		.byte	0x8
 755 0434 8001     		.2byte	0x180
 756 0436 7F010000 		.4byte	0x17f
 757 043a 08       		.byte	0x8
 758 043b 09       		.uleb128 0x9
 759 043c 37080000 		.4byte	.LASF81
 760 0440 08       		.byte	0x8
 761 0441 8201     		.2byte	0x182
 762 0443 8A010000 		.4byte	0x18a
 763 0447 0C       		.byte	0xc
 764 0448 00       		.byte	0
 765 0449 03       		.uleb128 0x3
 766 044a 6D000000 		.4byte	.LASF82
 767 044e 07       		.byte	0x7
 768 044f 6B       		.byte	0x6b
 769 0450 54040000 		.4byte	0x454
 770 0454 0F       		.uleb128 0xf
 771 0455 0D020000 		.4byte	.LASF83
 772 0459 1404     		.2byte	0x414
 773 045b 08       		.byte	0x8
 774 045c A201     		.2byte	0x1a2
 775 045e 97040000 		.4byte	0x497
 776 0462 09       		.uleb128 0x9
 777 0463 97070000 		.4byte	.LASF84
 778 0467 08       		.byte	0x8
 779 0468 AA01     		.2byte	0x1aa
 780 046a B8080000 		.4byte	0x8b8
 781 046e 00       		.byte	0
 782 046f 09       		.uleb128 0x9
 783 0470 E1070000 		.4byte	.LASF85
 784 0474 08       		.byte	0x8
 785 0475 AF01     		.2byte	0x1af
 786 0477 69010000 		.4byte	0x169
 787 047b 04       		.byte	0x4
 788 047c 09       		.uleb128 0x9
 789 047d 6A020000 		.4byte	.LASF86
 790 0481 08       		.byte	0x8
 791 0482 B301     		.2byte	0x1b3
 792 0484 69010000 		.4byte	0x169
ARM GAS  C:\Users\noeta\AppData\Local\Temp\ccdNbph8.s 			page 15


 793 0488 08       		.byte	0x8
 794 0489 09       		.uleb128 0x9
 795 048a 42080000 		.4byte	.LASF87
 796 048e 08       		.byte	0x8
 797 048f B901     		.2byte	0x1b9
 798 0491 24070000 		.4byte	0x724
 799 0495 0C       		.byte	0xc
 800 0496 00       		.byte	0
 801 0497 03       		.uleb128 0x3
 802 0498 84040000 		.4byte	.LASF88
 803 049c 07       		.byte	0x7
 804 049d 70       		.byte	0x70
 805 049e A2040000 		.4byte	0x4a2
 806 04a2 0F       		.uleb128 0xf
 807 04a3 8E010000 		.4byte	.LASF89
 808 04a7 7006     		.2byte	0x670
 809 04a9 08       		.byte	0x8
 810 04aa C201     		.2byte	0x1c2
 811 04ac 0F050000 		.4byte	0x50f
 812 04b0 09       		.uleb128 0x9
 813 04b1 FD070000 		.4byte	.LASF90
 814 04b5 08       		.byte	0x8
 815 04b6 C601     		.2byte	0x1c6
 816 04b8 1D030000 		.4byte	0x31d
 817 04bc 00       		.byte	0
 818 04bd 09       		.uleb128 0x9
 819 04be 77010000 		.4byte	.LASF91
 820 04c2 08       		.byte	0x8
 821 04c3 CA01     		.2byte	0x1ca
 822 04c5 FC030000 		.4byte	0x3fc
 823 04c9 1C       		.byte	0x1c
 824 04ca 08       		.uleb128 0x8
 825 04cb 64626700 		.ascii	"dbg\000"
 826 04cf 08       		.byte	0x8
 827 04d0 CE01     		.2byte	0x1ce
 828 04d2 49040000 		.4byte	0x449
 829 04d6 2C       		.byte	0x2c
 830 04d7 10       		.uleb128 0x10
 831 04d8 D5000000 		.4byte	.LASF92
 832 04dc 08       		.byte	0x8
 833 04dd D201     		.2byte	0x1d2
 834 04df 8F010000 		.4byte	0x18f
 835 04e3 4004     		.2byte	0x440
 836 04e5 11       		.uleb128 0x11
 837 04e6 746D00   		.ascii	"tm\000"
 838 04e9 08       		.byte	0x8
 839 04ea D701     		.2byte	0x1d7
 840 04ec 44070000 		.4byte	0x744
 841 04f0 A804     		.2byte	0x4a8
 842 04f2 10       		.uleb128 0x10
 843 04f3 39000000 		.4byte	.LASF93
 844 04f7 08       		.byte	0x8
 845 04f8 DD01     		.2byte	0x1dd
 846 04fa D6070000 		.4byte	0x7d6
 847 04fe B004     		.2byte	0x4b0
 848 0500 10       		.uleb128 0x10
 849 0501 73020000 		.4byte	.LASF94
ARM GAS  C:\Users\noeta\AppData\Local\Temp\ccdNbph8.s 			page 16


 850 0505 08       		.byte	0x8
 851 0506 E301     		.2byte	0x1e3
 852 0508 D5080000 		.4byte	0x8d5
 853 050c E804     		.2byte	0x4e8
 854 050e 00       		.byte	0
 855 050f 12       		.uleb128 0x12
 856 0510 F6000000 		.4byte	.LASF95
 857 0514 09       		.byte	0x9
 858 0515 A706     		.2byte	0x6a7
 859 0517 D9000000 		.4byte	0xd9
 860 051b 13       		.uleb128 0x13
 861 051c ED030000 		.4byte	.LASF96
 862 0520 0A       		.byte	0xa
 863 0521 4C       		.byte	0x4c
 864 0522 DE000000 		.4byte	0xde
 865 0526 03       		.uleb128 0x3
 866 0527 F2010000 		.4byte	.LASF97
 867 052b 0B       		.byte	0xb
 868 052c 65       		.byte	0x65
 869 052d A0030000 		.4byte	0x3a0
 870 0531 03       		.uleb128 0x3
 871 0532 D1050000 		.4byte	.LASF98
 872 0536 0B       		.byte	0xb
 873 0537 6D       		.byte	0x6d
 874 0538 E9000000 		.4byte	0xe9
 875 053c 06       		.uleb128 0x6
 876 053d A8070000 		.4byte	.LASF99
 877 0541 04       		.byte	0x4
 878 0542 0B       		.byte	0xb
 879 0543 89       		.byte	0x89
 880 0544 55050000 		.4byte	0x555
 881 0548 14       		.uleb128 0x14
 882 0549 72313300 		.ascii	"r13\000"
 883 054d 0B       		.byte	0xb
 884 054e 8A       		.byte	0x8a
 885 054f 96060000 		.4byte	0x696
 886 0553 00       		.byte	0
 887 0554 00       		.byte	0
 888 0555 06       		.uleb128 0x6
 889 0556 50000000 		.4byte	.LASF100
 890 055a 64       		.byte	0x64
 891 055b 0C       		.byte	0xc
 892 055c F4       		.byte	0xf4
 893 055d 96060000 		.4byte	0x696
 894 0561 14       		.uleb128 0x14
 895 0562 73313600 		.ascii	"s16\000"
 896 0566 0C       		.byte	0xc
 897 0567 F6       		.byte	0xf6
 898 0568 26050000 		.4byte	0x526
 899 056c 00       		.byte	0
 900 056d 14       		.uleb128 0x14
 901 056e 73313700 		.ascii	"s17\000"
 902 0572 0C       		.byte	0xc
 903 0573 F7       		.byte	0xf7
 904 0574 26050000 		.4byte	0x526
 905 0578 04       		.byte	0x4
 906 0579 14       		.uleb128 0x14
ARM GAS  C:\Users\noeta\AppData\Local\Temp\ccdNbph8.s 			page 17


 907 057a 73313800 		.ascii	"s18\000"
 908 057e 0C       		.byte	0xc
 909 057f F8       		.byte	0xf8
 910 0580 26050000 		.4byte	0x526
 911 0584 08       		.byte	0x8
 912 0585 14       		.uleb128 0x14
 913 0586 73313900 		.ascii	"s19\000"
 914 058a 0C       		.byte	0xc
 915 058b F9       		.byte	0xf9
 916 058c 26050000 		.4byte	0x526
 917 0590 0C       		.byte	0xc
 918 0591 14       		.uleb128 0x14
 919 0592 73323000 		.ascii	"s20\000"
 920 0596 0C       		.byte	0xc
 921 0597 FA       		.byte	0xfa
 922 0598 26050000 		.4byte	0x526
 923 059c 10       		.byte	0x10
 924 059d 14       		.uleb128 0x14
 925 059e 73323100 		.ascii	"s21\000"
 926 05a2 0C       		.byte	0xc
 927 05a3 FB       		.byte	0xfb
 928 05a4 26050000 		.4byte	0x526
 929 05a8 14       		.byte	0x14
 930 05a9 14       		.uleb128 0x14
 931 05aa 73323200 		.ascii	"s22\000"
 932 05ae 0C       		.byte	0xc
 933 05af FC       		.byte	0xfc
 934 05b0 26050000 		.4byte	0x526
 935 05b4 18       		.byte	0x18
 936 05b5 14       		.uleb128 0x14
 937 05b6 73323300 		.ascii	"s23\000"
 938 05ba 0C       		.byte	0xc
 939 05bb FD       		.byte	0xfd
 940 05bc 26050000 		.4byte	0x526
 941 05c0 1C       		.byte	0x1c
 942 05c1 14       		.uleb128 0x14
 943 05c2 73323400 		.ascii	"s24\000"
 944 05c6 0C       		.byte	0xc
 945 05c7 FE       		.byte	0xfe
 946 05c8 26050000 		.4byte	0x526
 947 05cc 20       		.byte	0x20
 948 05cd 14       		.uleb128 0x14
 949 05ce 73323500 		.ascii	"s25\000"
 950 05d2 0C       		.byte	0xc
 951 05d3 FF       		.byte	0xff
 952 05d4 26050000 		.4byte	0x526
 953 05d8 24       		.byte	0x24
 954 05d9 08       		.uleb128 0x8
 955 05da 73323600 		.ascii	"s26\000"
 956 05de 0C       		.byte	0xc
 957 05df 0001     		.2byte	0x100
 958 05e1 26050000 		.4byte	0x526
 959 05e5 28       		.byte	0x28
 960 05e6 08       		.uleb128 0x8
 961 05e7 73323700 		.ascii	"s27\000"
 962 05eb 0C       		.byte	0xc
 963 05ec 0101     		.2byte	0x101
ARM GAS  C:\Users\noeta\AppData\Local\Temp\ccdNbph8.s 			page 18


 964 05ee 26050000 		.4byte	0x526
 965 05f2 2C       		.byte	0x2c
 966 05f3 08       		.uleb128 0x8
 967 05f4 73323800 		.ascii	"s28\000"
 968 05f8 0C       		.byte	0xc
 969 05f9 0201     		.2byte	0x102
 970 05fb 26050000 		.4byte	0x526
 971 05ff 30       		.byte	0x30
 972 0600 08       		.uleb128 0x8
 973 0601 73323900 		.ascii	"s29\000"
 974 0605 0C       		.byte	0xc
 975 0606 0301     		.2byte	0x103
 976 0608 26050000 		.4byte	0x526
 977 060c 34       		.byte	0x34
 978 060d 08       		.uleb128 0x8
 979 060e 73333000 		.ascii	"s30\000"
 980 0612 0C       		.byte	0xc
 981 0613 0401     		.2byte	0x104
 982 0615 26050000 		.4byte	0x526
 983 0619 38       		.byte	0x38
 984 061a 08       		.uleb128 0x8
 985 061b 73333100 		.ascii	"s31\000"
 986 061f 0C       		.byte	0xc
 987 0620 0501     		.2byte	0x105
 988 0622 26050000 		.4byte	0x526
 989 0626 3C       		.byte	0x3c
 990 0627 08       		.uleb128 0x8
 991 0628 723400   		.ascii	"r4\000"
 992 062b 0C       		.byte	0xc
 993 062c 0701     		.2byte	0x107
 994 062e 26050000 		.4byte	0x526
 995 0632 40       		.byte	0x40
 996 0633 08       		.uleb128 0x8
 997 0634 723500   		.ascii	"r5\000"
 998 0637 0C       		.byte	0xc
 999 0638 0801     		.2byte	0x108
 1000 063a 26050000 		.4byte	0x526
 1001 063e 44       		.byte	0x44
 1002 063f 08       		.uleb128 0x8
 1003 0640 723600   		.ascii	"r6\000"
 1004 0643 0C       		.byte	0xc
 1005 0644 0901     		.2byte	0x109
 1006 0646 26050000 		.4byte	0x526
 1007 064a 48       		.byte	0x48
 1008 064b 08       		.uleb128 0x8
 1009 064c 723700   		.ascii	"r7\000"
 1010 064f 0C       		.byte	0xc
 1011 0650 0A01     		.2byte	0x10a
 1012 0652 26050000 		.4byte	0x526
 1013 0656 4C       		.byte	0x4c
 1014 0657 08       		.uleb128 0x8
 1015 0658 723800   		.ascii	"r8\000"
 1016 065b 0C       		.byte	0xc
 1017 065c 0B01     		.2byte	0x10b
 1018 065e 26050000 		.4byte	0x526
 1019 0662 50       		.byte	0x50
 1020 0663 08       		.uleb128 0x8
ARM GAS  C:\Users\noeta\AppData\Local\Temp\ccdNbph8.s 			page 19


 1021 0664 723900   		.ascii	"r9\000"
 1022 0667 0C       		.byte	0xc
 1023 0668 0C01     		.2byte	0x10c
 1024 066a 26050000 		.4byte	0x526
 1025 066e 54       		.byte	0x54
 1026 066f 08       		.uleb128 0x8
 1027 0670 72313000 		.ascii	"r10\000"
 1028 0674 0C       		.byte	0xc
 1029 0675 0D01     		.2byte	0x10d
 1030 0677 26050000 		.4byte	0x526
 1031 067b 58       		.byte	0x58
 1032 067c 08       		.uleb128 0x8
 1033 067d 72313100 		.ascii	"r11\000"
 1034 0681 0C       		.byte	0xc
 1035 0682 0E01     		.2byte	0x10e
 1036 0684 26050000 		.4byte	0x526
 1037 0688 5C       		.byte	0x5c
 1038 0689 08       		.uleb128 0x8
 1039 068a 6C7200   		.ascii	"lr\000"
 1040 068d 0C       		.byte	0xc
 1041 068e 0F01     		.2byte	0x10f
 1042 0690 26050000 		.4byte	0x526
 1043 0694 60       		.byte	0x60
 1044 0695 00       		.byte	0
 1045 0696 0A       		.uleb128 0xa
 1046 0697 04       		.byte	0x4
 1047 0698 55050000 		.4byte	0x555
 1048 069c 15       		.uleb128 0x15
 1049 069d 10       		.byte	0x10
 1050 069e 0D       		.byte	0xd
 1051 069f 51       		.byte	0x51
 1052 06a0 D5060000 		.4byte	0x6d5
 1053 06a4 07       		.uleb128 0x7
 1054 06a5 1A000000 		.4byte	.LASF101
 1055 06a9 0D       		.byte	0xd
 1056 06aa 55       		.byte	0x55
 1057 06ab 7F010000 		.4byte	0x17f
 1058 06af 00       		.byte	0
 1059 06b0 07       		.uleb128 0x7
 1060 06b1 AA010000 		.4byte	.LASF102
 1061 06b5 0D       		.byte	0xd
 1062 06b6 59       		.byte	0x59
 1063 06b7 C3020000 		.4byte	0x2c3
 1064 06bb 04       		.byte	0x4
 1065 06bc 07       		.uleb128 0x7
 1066 06bd 80080000 		.4byte	.LASF103
 1067 06c1 0D       		.byte	0xd
 1068 06c2 5D       		.byte	0x5d
 1069 06c3 A0030000 		.4byte	0x3a0
 1070 06c7 08       		.byte	0x8
 1071 06c8 07       		.uleb128 0x7
 1072 06c9 F4070000 		.4byte	.LASF104
 1073 06cd 0D       		.byte	0xd
 1074 06ce 61       		.byte	0x61
 1075 06cf AD000000 		.4byte	0xad
 1076 06d3 0C       		.byte	0xc
 1077 06d4 00       		.byte	0
ARM GAS  C:\Users\noeta\AppData\Local\Temp\ccdNbph8.s 			page 20


 1078 06d5 03       		.uleb128 0x3
 1079 06d6 69050000 		.4byte	.LASF105
 1080 06da 0D       		.byte	0xd
 1081 06db 62       		.byte	0x62
 1082 06dc 9C060000 		.4byte	0x69c
 1083 06e0 16       		.uleb128 0x16
 1084 06e1 0804     		.2byte	0x408
 1085 06e3 0D       		.byte	0xd
 1086 06e4 67       		.byte	0x67
 1087 06e5 0E070000 		.4byte	0x70e
 1088 06e9 07       		.uleb128 0x7
 1089 06ea D3010000 		.4byte	.LASF106
 1090 06ee 0D       		.byte	0xd
 1091 06ef 6B       		.byte	0x6b
 1092 06f0 A6000000 		.4byte	0xa6
 1093 06f4 00       		.byte	0
 1094 06f5 07       		.uleb128 0x7
 1095 06f6 62050000 		.4byte	.LASF107
 1096 06fa 0D       		.byte	0xd
 1097 06fb 6F       		.byte	0x6f
 1098 06fc 0E070000 		.4byte	0x70e
 1099 0700 04       		.byte	0x4
 1100 0701 07       		.uleb128 0x7
 1101 0702 E4050000 		.4byte	.LASF108
 1102 0706 0D       		.byte	0xd
 1103 0707 73       		.byte	0x73
 1104 0708 14070000 		.4byte	0x714
 1105 070c 08       		.byte	0x8
 1106 070d 00       		.byte	0
 1107 070e 0A       		.uleb128 0xa
 1108 070f 04       		.byte	0x4
 1109 0710 D5060000 		.4byte	0x6d5
 1110 0714 17       		.uleb128 0x17
 1111 0715 D5060000 		.4byte	0x6d5
 1112 0719 24070000 		.4byte	0x724
 1113 071d 18       		.uleb128 0x18
 1114 071e A6000000 		.4byte	0xa6
 1115 0722 3F       		.byte	0x3f
 1116 0723 00       		.byte	0
 1117 0724 03       		.uleb128 0x3
 1118 0725 AC000000 		.4byte	.LASF109
 1119 0729 0D       		.byte	0xd
 1120 072a 74       		.byte	0x74
 1121 072b E0060000 		.4byte	0x6e0
 1122 072f 15       		.uleb128 0x15
 1123 0730 04       		.byte	0x4
 1124 0731 0E       		.byte	0xe
 1125 0732 38       		.byte	0x38
 1126 0733 44070000 		.4byte	0x744
 1127 0737 07       		.uleb128 0x7
 1128 0738 A1070000 		.4byte	.LASF110
 1129 073c 0E       		.byte	0xe
 1130 073d 3C       		.byte	0x3c
 1131 073e 06010000 		.4byte	0x106
 1132 0742 00       		.byte	0
 1133 0743 00       		.byte	0
 1134 0744 03       		.uleb128 0x3
ARM GAS  C:\Users\noeta\AppData\Local\Temp\ccdNbph8.s 			page 21


 1135 0745 98050000 		.4byte	.LASF111
 1136 0749 0E       		.byte	0xe
 1137 074a 3D       		.byte	0x3d
 1138 074b 2F070000 		.4byte	0x72f
 1139 074f 15       		.uleb128 0x15
 1140 0750 18       		.byte	0x18
 1141 0751 0E       		.byte	0xe
 1142 0752 48       		.byte	0x48
 1143 0753 92070000 		.4byte	0x792
 1144 0757 07       		.uleb128 0x7
 1145 0758 62070000 		.4byte	.LASF112
 1146 075c 0E       		.byte	0xe
 1147 075d 49       		.byte	0x49
 1148 075e 06010000 		.4byte	0x106
 1149 0762 00       		.byte	0
 1150 0763 07       		.uleb128 0x7
 1151 0764 7C000000 		.4byte	.LASF113
 1152 0768 0E       		.byte	0xe
 1153 0769 4A       		.byte	0x4a
 1154 076a 06010000 		.4byte	0x106
 1155 076e 04       		.byte	0x4
 1156 076f 07       		.uleb128 0x7
 1157 0770 78040000 		.4byte	.LASF114
 1158 0774 0E       		.byte	0xe
 1159 0775 4B       		.byte	0x4b
 1160 0776 06010000 		.4byte	0x106
 1161 077a 08       		.byte	0x8
 1162 077b 14       		.uleb128 0x14
 1163 077c 6E00     		.ascii	"n\000"
 1164 077e 0E       		.byte	0xe
 1165 077f 4C       		.byte	0x4c
 1166 0780 74010000 		.4byte	0x174
 1167 0784 0C       		.byte	0xc
 1168 0785 07       		.uleb128 0x7
 1169 0786 C6050000 		.4byte	.LASF115
 1170 078a 0E       		.byte	0xe
 1171 078b 4D       		.byte	0x4d
 1172 078c 11010000 		.4byte	0x111
 1173 0790 10       		.byte	0x10
 1174 0791 00       		.byte	0
 1175 0792 03       		.uleb128 0x3
 1176 0793 82000000 		.4byte	.LASF116
 1177 0797 0E       		.byte	0xe
 1178 0798 4E       		.byte	0x4e
 1179 0799 4F070000 		.4byte	0x74f
 1180 079d 15       		.uleb128 0x15
 1181 079e 38       		.byte	0x38
 1182 079f 0F       		.byte	0xf
 1183 07a0 38       		.byte	0x38
 1184 07a1 D6070000 		.4byte	0x7d6
 1185 07a5 07       		.uleb128 0x7
 1186 07a6 35040000 		.4byte	.LASF117
 1187 07aa 0F       		.byte	0xf
 1188 07ab 39       		.byte	0x39
 1189 07ac 74010000 		.4byte	0x174
 1190 07b0 00       		.byte	0
 1191 07b1 07       		.uleb128 0x7
ARM GAS  C:\Users\noeta\AppData\Local\Temp\ccdNbph8.s 			page 22


 1192 07b2 18060000 		.4byte	.LASF118
 1193 07b6 0F       		.byte	0xf
 1194 07b7 3A       		.byte	0x3a
 1195 07b8 74010000 		.4byte	0x174
 1196 07bc 04       		.byte	0x4
 1197 07bd 07       		.uleb128 0x7
 1198 07be 6D080000 		.4byte	.LASF119
 1199 07c2 0F       		.byte	0xf
 1200 07c3 3B       		.byte	0x3b
 1201 07c4 92070000 		.4byte	0x792
 1202 07c8 08       		.byte	0x8
 1203 07c9 07       		.uleb128 0x7
 1204 07ca 9C040000 		.4byte	.LASF120
 1205 07ce 0F       		.byte	0xf
 1206 07cf 3D       		.byte	0x3d
 1207 07d0 92070000 		.4byte	0x792
 1208 07d4 20       		.byte	0x20
 1209 07d5 00       		.byte	0
 1210 07d6 03       		.uleb128 0x3
 1211 07d7 59040000 		.4byte	.LASF121
 1212 07db 0F       		.byte	0xf
 1213 07dc 3F       		.byte	0x3f
 1214 07dd 9D070000 		.4byte	0x79d
 1215 07e1 19       		.uleb128 0x19
 1216 07e2 04       		.byte	0x4
 1217 07e3 08       		.byte	0x8
 1218 07e4 FA       		.byte	0xfa
 1219 07e5 3E080000 		.4byte	0x83e
 1220 07e9 1A       		.uleb128 0x1a
 1221 07ea 29000000 		.4byte	.LASF122
 1222 07ee 08       		.byte	0x8
 1223 07ef 0101     		.2byte	0x101
 1224 07f1 53010000 		.4byte	0x153
 1225 07f5 1A       		.uleb128 0x1a
 1226 07f6 CC000000 		.4byte	.LASF123
 1227 07fa 08       		.byte	0x8
 1228 07fb 0801     		.2byte	0x108
 1229 07fd 53010000 		.4byte	0x153
 1230 0801 1A       		.uleb128 0x1a
 1231 0802 1E080000 		.4byte	.LASF124
 1232 0806 08       		.byte	0x8
 1233 0807 0F01     		.2byte	0x10f
 1234 0809 A0030000 		.4byte	0x3a0
 1235 080d 1A       		.uleb128 0x1a
 1236 080e 88010000 		.4byte	.LASF125
 1237 0812 08       		.byte	0x8
 1238 0813 1601     		.2byte	0x116
 1239 0815 3E080000 		.4byte	0x83e
 1240 0819 1A       		.uleb128 0x1a
 1241 081a 04040000 		.4byte	.LASF126
 1242 081e 08       		.byte	0x8
 1243 081f 1E01     		.2byte	0x11e
 1244 0821 69080000 		.4byte	0x869
 1245 0825 1A       		.uleb128 0x1a
 1246 0826 47070000 		.4byte	.LASF127
 1247 082a 08       		.byte	0x8
 1248 082b 2701     		.2byte	0x127
ARM GAS  C:\Users\noeta\AppData\Local\Temp\ccdNbph8.s 			page 23


 1249 082d AC080000 		.4byte	0x8ac
 1250 0831 1A       		.uleb128 0x1a
 1251 0832 64060000 		.4byte	.LASF128
 1252 0836 08       		.byte	0x8
 1253 0837 2F01     		.2byte	0x12f
 1254 0839 5E010000 		.4byte	0x15e
 1255 083d 00       		.byte	0
 1256 083e 0A       		.uleb128 0xa
 1257 083f 04       		.byte	0x4
 1258 0840 B8020000 		.4byte	0x2b8
 1259 0844 06       		.uleb128 0x6
 1260 0845 D8060000 		.4byte	.LASF129
 1261 0849 0C       		.byte	0xc
 1262 084a 10       		.byte	0x10
 1263 084b 34       		.byte	0x34
 1264 084c 69080000 		.4byte	0x869
 1265 0850 07       		.uleb128 0x7
 1266 0851 CB010000 		.4byte	.LASF130
 1267 0855 10       		.byte	0x10
 1268 0856 35       		.byte	0x35
 1269 0857 ED020000 		.4byte	0x2ed
 1270 085b 00       		.byte	0
 1271 085c 07       		.uleb128 0x7
 1272 085d 3B040000 		.4byte	.LASF131
 1273 0861 10       		.byte	0x10
 1274 0862 37       		.byte	0x37
 1275 0863 69010000 		.4byte	0x169
 1276 0867 08       		.byte	0x8
 1277 0868 00       		.byte	0
 1278 0869 0A       		.uleb128 0xa
 1279 086a 04       		.byte	0x4
 1280 086b 44080000 		.4byte	0x844
 1281 086f 06       		.uleb128 0x6
 1282 0870 D1070000 		.4byte	.LASF132
 1283 0874 14       		.byte	0x14
 1284 0875 11       		.byte	0x11
 1285 0876 39       		.byte	0x39
 1286 0877 AC080000 		.4byte	0x8ac
 1287 087b 07       		.uleb128 0x7
 1288 087c 6F010000 		.4byte	.LASF133
 1289 0880 11       		.byte	0x11
 1290 0881 3A       		.byte	0x3a
 1291 0882 ED020000 		.4byte	0x2ed
 1292 0886 00       		.byte	0
 1293 0887 07       		.uleb128 0x7
 1294 0888 78080000 		.4byte	.LASF134
 1295 088c 11       		.byte	0x11
 1296 088d 3C       		.byte	0x3c
 1297 088e C3020000 		.4byte	0x2c3
 1298 0892 08       		.byte	0x8
 1299 0893 07       		.uleb128 0x7
 1300 0894 67070000 		.4byte	.LASF135
 1301 0898 11       		.byte	0x11
 1302 0899 3E       		.byte	0x3e
 1303 089a 070A0000 		.4byte	0xa07
 1304 089e 0C       		.byte	0xc
 1305 089f 07       		.uleb128 0x7
ARM GAS  C:\Users\noeta\AppData\Local\Temp\ccdNbph8.s 			page 24


 1306 08a0 5C020000 		.4byte	.LASF136
 1307 08a4 11       		.byte	0x11
 1308 08a5 41       		.byte	0x41
 1309 08a6 69010000 		.4byte	0x169
 1310 08aa 10       		.byte	0x10
 1311 08ab 00       		.byte	0
 1312 08ac 0A       		.uleb128 0xa
 1313 08ad 04       		.byte	0x4
 1314 08ae 6F080000 		.4byte	0x86f
 1315 08b2 0A       		.uleb128 0xa
 1316 08b3 04       		.byte	0x4
 1317 08b4 C4080000 		.4byte	0x8c4
 1318 08b8 05       		.uleb128 0x5
 1319 08b9 B2080000 		.4byte	0x8b2
 1320 08bd 02       		.uleb128 0x2
 1321 08be 01       		.byte	0x1
 1322 08bf 08       		.byte	0x8
 1323 08c0 42070000 		.4byte	.LASF137
 1324 08c4 1B       		.uleb128 0x1b
 1325 08c5 BD080000 		.4byte	0x8bd
 1326 08c9 0A       		.uleb128 0xa
 1327 08ca 04       		.byte	0x4
 1328 08cb 31050000 		.4byte	0x531
 1329 08cf 0A       		.uleb128 0xa
 1330 08d0 04       		.byte	0x4
 1331 08d1 A2030000 		.4byte	0x3a2
 1332 08d5 17       		.uleb128 0x17
 1333 08d6 31050000 		.4byte	0x531
 1334 08da E5080000 		.4byte	0x8e5
 1335 08de 18       		.uleb128 0x18
 1336 08df A6000000 		.4byte	0xa6
 1337 08e3 30       		.byte	0x30
 1338 08e4 00       		.byte	0
 1339 08e5 1C       		.uleb128 0x1c
 1340 08e6 636800   		.ascii	"ch\000"
 1341 08e9 08       		.byte	0x8
 1342 08ea 0902     		.2byte	0x209
 1343 08ec 97040000 		.4byte	0x497
 1344 08f0 15       		.uleb128 0x15
 1345 08f1 16       		.byte	0x16
 1346 08f2 02       		.byte	0x2
 1347 08f3 34       		.byte	0x34
 1348 08f4 D1090000 		.4byte	0x9d1
 1349 08f8 07       		.uleb128 0x7
 1350 08f9 8A080000 		.4byte	.LASF138
 1351 08fd 02       		.byte	0x2
 1352 08fe 35       		.byte	0x35
 1353 08ff D1090000 		.4byte	0x9d1
 1354 0903 00       		.byte	0
 1355 0904 07       		.uleb128 0x7
 1356 0905 F9040000 		.4byte	.LASF139
 1357 0909 02       		.byte	0x2
 1358 090a 36       		.byte	0x36
 1359 090b AD000000 		.4byte	0xad
 1360 090f 04       		.byte	0x4
 1361 0910 07       		.uleb128 0x7
 1362 0911 28070000 		.4byte	.LASF140
ARM GAS  C:\Users\noeta\AppData\Local\Temp\ccdNbph8.s 			page 25


 1363 0915 02       		.byte	0x2
 1364 0916 37       		.byte	0x37
 1365 0917 AD000000 		.4byte	0xad
 1366 091b 05       		.byte	0x5
 1367 091c 07       		.uleb128 0x7
 1368 091d 4F080000 		.4byte	.LASF141
 1369 0921 02       		.byte	0x2
 1370 0922 38       		.byte	0x38
 1371 0923 C3000000 		.4byte	0xc3
 1372 0927 06       		.byte	0x6
 1373 0928 07       		.uleb128 0x7
 1374 0929 EE050000 		.4byte	.LASF142
 1375 092d 02       		.byte	0x2
 1376 092e 39       		.byte	0x39
 1377 092f AD000000 		.4byte	0xad
 1378 0933 08       		.byte	0x8
 1379 0934 07       		.uleb128 0x7
 1380 0935 56050000 		.4byte	.LASF143
 1381 0939 02       		.byte	0x2
 1382 093a 3A       		.byte	0x3a
 1383 093b AD000000 		.4byte	0xad
 1384 093f 09       		.byte	0x9
 1385 0940 07       		.uleb128 0x7
 1386 0941 BE000000 		.4byte	.LASF144
 1387 0945 02       		.byte	0x2
 1388 0946 3B       		.byte	0x3b
 1389 0947 AD000000 		.4byte	0xad
 1390 094b 0A       		.byte	0xa
 1391 094c 07       		.uleb128 0x7
 1392 094d 04070000 		.4byte	.LASF145
 1393 0951 02       		.byte	0x2
 1394 0952 3C       		.byte	0x3c
 1395 0953 AD000000 		.4byte	0xad
 1396 0957 0B       		.byte	0xb
 1397 0958 07       		.uleb128 0x7
 1398 0959 C6070000 		.4byte	.LASF146
 1399 095d 02       		.byte	0x2
 1400 095e 3D       		.byte	0x3d
 1401 095f AD000000 		.4byte	0xad
 1402 0963 0C       		.byte	0xc
 1403 0964 07       		.uleb128 0x7
 1404 0965 BA060000 		.4byte	.LASF147
 1405 0969 02       		.byte	0x2
 1406 096a 3E       		.byte	0x3e
 1407 096b AD000000 		.4byte	0xad
 1408 096f 0D       		.byte	0xd
 1409 0970 07       		.uleb128 0x7
 1410 0971 00000000 		.4byte	.LASF148
 1411 0975 02       		.byte	0x2
 1412 0976 3F       		.byte	0x3f
 1413 0977 AD000000 		.4byte	0xad
 1414 097b 0E       		.byte	0xe
 1415 097c 07       		.uleb128 0x7
 1416 097d 78050000 		.4byte	.LASF149
 1417 0981 02       		.byte	0x2
 1418 0982 40       		.byte	0x40
 1419 0983 AD000000 		.4byte	0xad
ARM GAS  C:\Users\noeta\AppData\Local\Temp\ccdNbph8.s 			page 26


 1420 0987 0F       		.byte	0xf
 1421 0988 07       		.uleb128 0x7
 1422 0989 4A010000 		.4byte	.LASF150
 1423 098d 02       		.byte	0x2
 1424 098e 41       		.byte	0x41
 1425 098f AD000000 		.4byte	0xad
 1426 0993 10       		.byte	0x10
 1427 0994 07       		.uleb128 0x7
 1428 0995 13010000 		.4byte	.LASF151
 1429 0999 02       		.byte	0x2
 1430 099a 43       		.byte	0x43
 1431 099b AD000000 		.4byte	0xad
 1432 099f 11       		.byte	0x11
 1433 09a0 07       		.uleb128 0x7
 1434 09a1 5A010000 		.4byte	.LASF152
 1435 09a5 02       		.byte	0x2
 1436 09a6 44       		.byte	0x44
 1437 09a7 AD000000 		.4byte	0xad
 1438 09ab 12       		.byte	0x12
 1439 09ac 07       		.uleb128 0x7
 1440 09ad 01050000 		.4byte	.LASF153
 1441 09b1 02       		.byte	0x2
 1442 09b2 45       		.byte	0x45
 1443 09b3 AD000000 		.4byte	0xad
 1444 09b7 13       		.byte	0x13
 1445 09b8 07       		.uleb128 0x7
 1446 09b9 7A060000 		.4byte	.LASF154
 1447 09bd 02       		.byte	0x2
 1448 09be 46       		.byte	0x46
 1449 09bf AD000000 		.4byte	0xad
 1450 09c3 14       		.byte	0x14
 1451 09c4 07       		.uleb128 0x7
 1452 09c5 90040000 		.4byte	.LASF155
 1453 09c9 02       		.byte	0x2
 1454 09ca 48       		.byte	0x48
 1455 09cb AD000000 		.4byte	0xad
 1456 09cf 15       		.byte	0x15
 1457 09d0 00       		.byte	0
 1458 09d1 17       		.uleb128 0x17
 1459 09d2 BD080000 		.4byte	0x8bd
 1460 09d6 E1090000 		.4byte	0x9e1
 1461 09da 18       		.uleb128 0x18
 1462 09db A6000000 		.4byte	0xa6
 1463 09df 03       		.byte	0x3
 1464 09e0 00       		.byte	0
 1465 09e1 03       		.uleb128 0x3
 1466 09e2 B0010000 		.4byte	.LASF156
 1467 09e6 02       		.byte	0x2
 1468 09e7 49       		.byte	0x49
 1469 09e8 F0080000 		.4byte	0x8f0
 1470 09ec 1B       		.uleb128 0x1b
 1471 09ed E1090000 		.4byte	0x9e1
 1472 09f1 13       		.uleb128 0x13
 1473 09f2 1F040000 		.4byte	.LASF157
 1474 09f6 02       		.byte	0x2
 1475 09f7 6E       		.byte	0x6e
 1476 09f8 EC090000 		.4byte	0x9ec
ARM GAS  C:\Users\noeta\AppData\Local\Temp\ccdNbph8.s 			page 27


 1477 09fc 03       		.uleb128 0x3
 1478 09fd 28010000 		.4byte	.LASF158
 1479 0a01 11       		.byte	0x11
 1480 0a02 34       		.byte	0x34
 1481 0a03 6F080000 		.4byte	0x86f
 1482 0a07 0A       		.uleb128 0xa
 1483 0a08 04       		.byte	0x4
 1484 0a09 FC090000 		.4byte	0x9fc
 1485 0a0d 1D       		.uleb128 0x1d
 1486 0a0e B6070000 		.4byte	.LASF159
 1487 0a12 01       		.byte	0x1
 1488 0a13 05       		.byte	0x5
 1489 0a14 B8000000 		.4byte	0xb8
 1490 0a18 05       		.uleb128 0x5
 1491 0a19 03       		.byte	0x3
 1492 0a1a 00000000 		.4byte	distance
 1493 0a1e 17       		.uleb128 0x17
 1494 0a1f 31050000 		.4byte	0x531
 1495 0a23 2E0A0000 		.4byte	0xa2e
 1496 0a27 18       		.uleb128 0x18
 1497 0a28 A6000000 		.4byte	0xa6
 1498 0a2c 4E       		.byte	0x4e
 1499 0a2d 00       		.byte	0
 1500 0a2e 1D       		.uleb128 0x1d
 1501 0a2f E9070000 		.4byte	.LASF160
 1502 0a33 01       		.byte	0x1
 1503 0a34 07       		.byte	0x7
 1504 0a35 1E0A0000 		.4byte	0xa1e
 1505 0a39 05       		.uleb128 0x5
 1506 0a3a 03       		.byte	0x3
 1507 0a3b 00000000 		.4byte	waDistance
 1508 0a3f 1E       		.uleb128 0x1e
 1509 0a40 CB040000 		.4byte	.LASF167
 1510 0a44 01       		.byte	0x1
 1511 0a45 17       		.byte	0x17
 1512 0a46 B8000000 		.4byte	0xb8
 1513 0a4a 00000000 		.4byte	.LFB221
 1514 0a4e 2C000000 		.4byte	.LFE221-.LFB221
 1515 0a52 01       		.uleb128 0x1
 1516 0a53 9C       		.byte	0x9c
 1517 0a54 620A0000 		.4byte	0xa62
 1518 0a58 1F       		.uleb128 0x1f
 1519 0a59 22000000 		.4byte	.LVL6
 1520 0a5d 690B0000 		.4byte	0xb69
 1521 0a61 00       		.byte	0
 1522 0a62 20       		.uleb128 0x20
 1523 0a63 E3010000 		.4byte	.LASF168
 1524 0a67 01       		.byte	0x1
 1525 0a68 13       		.byte	0x13
 1526 0a69 00000000 		.4byte	.LFB220
 1527 0a6d 38000000 		.4byte	.LFE220-.LFB220
 1528 0a71 01       		.uleb128 0x1
 1529 0a72 9C       		.byte	0x9c
 1530 0a73 B40A0000 		.4byte	0xab4
 1531 0a77 21       		.uleb128 0x21
 1532 0a78 1C000000 		.4byte	.LVL4
 1533 0a7c 720B0000 		.4byte	0xb72
ARM GAS  C:\Users\noeta\AppData\Local\Temp\ccdNbph8.s 			page 28


 1534 0a80 AA0A0000 		.4byte	0xaaa
 1535 0a84 22       		.uleb128 0x22
 1536 0a85 01       		.uleb128 0x1
 1537 0a86 50       		.byte	0x50
 1538 0a87 05       		.uleb128 0x5
 1539 0a88 03       		.byte	0x3
 1540 0a89 00000000 		.4byte	.LANCHOR2
 1541 0a8d 22       		.uleb128 0x22
 1542 0a8e 01       		.uleb128 0x1
 1543 0a8f 51       		.byte	0x51
 1544 0a90 03       		.uleb128 0x3
 1545 0a91 0A       		.byte	0xa
 1546 0a92 7802     		.2byte	0x278
 1547 0a94 22       		.uleb128 0x22
 1548 0a95 01       		.uleb128 0x1
 1549 0a96 52       		.byte	0x52
 1550 0a97 02       		.uleb128 0x2
 1551 0a98 08       		.byte	0x8
 1552 0a99 40       		.byte	0x40
 1553 0a9a 22       		.uleb128 0x22
 1554 0a9b 01       		.uleb128 0x1
 1555 0a9c 53       		.byte	0x53
 1556 0a9d 05       		.uleb128 0x5
 1557 0a9e 03       		.byte	0x3
 1558 0a9f 00000000 		.4byte	Distance
 1559 0aa3 22       		.uleb128 0x22
 1560 0aa4 02       		.uleb128 0x2
 1561 0aa5 7D       		.byte	0x7d
 1562 0aa6 00       		.sleb128 0
 1563 0aa7 01       		.uleb128 0x1
 1564 0aa8 30       		.byte	0x30
 1565 0aa9 00       		.byte	0
 1566 0aaa 1F       		.uleb128 0x1f
 1567 0aab 2C000000 		.4byte	.LVL5
 1568 0aaf 690B0000 		.4byte	0xb69
 1569 0ab3 00       		.byte	0
 1570 0ab4 23       		.uleb128 0x23
 1571 0ab5 BA010000 		.4byte	.LASF169
 1572 0ab9 01       		.byte	0x1
 1573 0aba 08       		.byte	0x8
 1574 0abb 00000000 		.4byte	.LFB219
 1575 0abf 34000000 		.4byte	.LFE219-.LFB219
 1576 0ac3 01       		.uleb128 0x1
 1577 0ac4 9C       		.byte	0x9c
 1578 0ac5 3C0B0000 		.4byte	0xb3c
 1579 0ac9 24       		.uleb128 0x24
 1580 0aca 61726700 		.ascii	"arg\000"
 1581 0ace 01       		.byte	0x1
 1582 0acf 08       		.byte	0x8
 1583 0ad0 A0030000 		.4byte	0x3a0
 1584 0ad4 00000000 		.4byte	.LLST0
 1585 0ad8 25       		.uleb128 0x25
 1586 0ad9 28040000 		.4byte	.LASF170
 1587 0add 4C0B0000 		.4byte	0xb4c
 1588 0ae1 05       		.uleb128 0x5
 1589 0ae2 03       		.byte	0x3
 1590 0ae3 00000000 		.4byte	__FUNCTION__.7855
ARM GAS  C:\Users\noeta\AppData\Local\Temp\ccdNbph8.s 			page 29


 1591 0ae7 26       		.uleb128 0x26
 1592 0ae8 14000000 		.4byte	.LBB11
 1593 0aec 20000000 		.4byte	.LBE11-.LBB11
 1594 0af0 1F0B0000 		.4byte	0xb1f
 1595 0af4 27       		.uleb128 0x27
 1596 0af5 36050000 		.4byte	.LASF162
 1597 0af9 01       		.byte	0x1
 1598 0afa 0E       		.byte	0xe
 1599 0afb 9F000000 		.4byte	0x9f
 1600 0aff 050B0000 		.4byte	0xb05
 1601 0b03 28       		.uleb128 0x28
 1602 0b04 00       		.byte	0
 1603 0b05 1F       		.uleb128 0x1f
 1604 0b06 18000000 		.4byte	.LVL2
 1605 0b0a 7D0B0000 		.4byte	0xb7d
 1606 0b0e 29       		.uleb128 0x29
 1607 0b0f 20000000 		.4byte	.LVL3
 1608 0b13 880B0000 		.4byte	0xb88
 1609 0b17 22       		.uleb128 0x22
 1610 0b18 01       		.uleb128 0x1
 1611 0b19 50       		.byte	0x50
 1612 0b1a 02       		.uleb128 0x2
 1613 0b1b 08       		.byte	0x8
 1614 0b1c 64       		.byte	0x64
 1615 0b1d 00       		.byte	0
 1616 0b1e 00       		.byte	0
 1617 0b1f 2A       		.uleb128 0x2a
 1618 0b20 510B0000 		.4byte	0xb51
 1619 0b24 02000000 		.4byte	.LBB5
 1620 0b28 00000000 		.4byte	.Ldebug_ranges0+0
 1621 0b2c 01       		.byte	0x1
 1622 0b2d 0A       		.byte	0xa
 1623 0b2e 2B       		.uleb128 0x2b
 1624 0b2f 5D0B0000 		.4byte	0xb5d
 1625 0b33 06       		.uleb128 0x6
 1626 0b34 F2       		.byte	0xf2
 1627 0b35 930B0000 		.4byte	.Ldebug_info0+2963
 1628 0b39 00       		.sleb128 0
 1629 0b3a 00       		.byte	0
 1630 0b3b 00       		.byte	0
 1631 0b3c 17       		.uleb128 0x17
 1632 0b3d C4080000 		.4byte	0x8c4
 1633 0b41 4C0B0000 		.4byte	0xb4c
 1634 0b45 18       		.uleb128 0x18
 1635 0b46 A6000000 		.4byte	0xa6
 1636 0b4a 08       		.byte	0x8
 1637 0b4b 00       		.byte	0
 1638 0b4c 1B       		.uleb128 0x1b
 1639 0b4d 3C0B0000 		.4byte	0xb3c
 1640 0b51 2C       		.uleb128 0x2c
 1641 0b52 5A080000 		.4byte	.LASF171
 1642 0b56 02       		.byte	0x2
 1643 0b57 84       		.byte	0x84
 1644 0b58 03       		.byte	0x3
 1645 0b59 690B0000 		.4byte	0xb69
 1646 0b5d 2D       		.uleb128 0x2d
 1647 0b5e 41040000 		.4byte	.LASF172
ARM GAS  C:\Users\noeta\AppData\Local\Temp\ccdNbph8.s 			page 30


 1648 0b62 02       		.byte	0x2
 1649 0b63 84       		.byte	0x84
 1650 0b64 B2080000 		.4byte	0x8b2
 1651 0b68 00       		.byte	0
 1652 0b69 2E       		.uleb128 0x2e
 1653 0b6a C7060000 		.4byte	.LASF173
 1654 0b6e C7060000 		.4byte	.LASF173
 1655 0b72 2F       		.uleb128 0x2f
 1656 0b73 D8040000 		.4byte	.LASF161
 1657 0b77 D8040000 		.4byte	.LASF161
 1658 0b7b 12       		.byte	0x12
 1659 0b7c 89       		.byte	0x89
 1660 0b7d 2F       		.uleb128 0x2f
 1661 0b7e 36050000 		.4byte	.LASF162
 1662 0b82 36050000 		.4byte	.LASF162
 1663 0b86 01       		.byte	0x1
 1664 0b87 0E       		.byte	0xe
 1665 0b88 2F       		.uleb128 0x2f
 1666 0b89 F0060000 		.4byte	.LASF163
 1667 0b8d F0060000 		.4byte	.LASF163
 1668 0b91 12       		.byte	0x12
 1669 0b92 96       		.byte	0x96
 1670 0b93 30       		.uleb128 0x30
 1671 0b94 0B       		.uleb128 0xb
 1672 0b95 9E       		.byte	0x9e
 1673 0b96 09       		.uleb128 0x9
 1674 0b97 44       		.byte	0x44
 1675 0b98 69       		.byte	0x69
 1676 0b99 73       		.byte	0x73
 1677 0b9a 74       		.byte	0x74
 1678 0b9b 61       		.byte	0x61
 1679 0b9c 6E       		.byte	0x6e
 1680 0b9d 63       		.byte	0x63
 1681 0b9e 65       		.byte	0x65
 1682 0b9f 00       		.byte	0
 1683 0ba0 00       		.byte	0
 1684              		.section	.debug_abbrev,"",%progbits
 1685              	.Ldebug_abbrev0:
 1686 0000 01       		.uleb128 0x1
 1687 0001 11       		.uleb128 0x11
 1688 0002 01       		.byte	0x1
 1689 0003 25       		.uleb128 0x25
 1690 0004 0E       		.uleb128 0xe
 1691 0005 13       		.uleb128 0x13
 1692 0006 0B       		.uleb128 0xb
 1693 0007 03       		.uleb128 0x3
 1694 0008 0E       		.uleb128 0xe
 1695 0009 1B       		.uleb128 0x1b
 1696 000a 0E       		.uleb128 0xe
 1697 000b 55       		.uleb128 0x55
 1698 000c 17       		.uleb128 0x17
 1699 000d 11       		.uleb128 0x11
 1700 000e 01       		.uleb128 0x1
 1701 000f 10       		.uleb128 0x10
 1702 0010 17       		.uleb128 0x17
 1703 0011 00       		.byte	0
 1704 0012 00       		.byte	0
ARM GAS  C:\Users\noeta\AppData\Local\Temp\ccdNbph8.s 			page 31


 1705 0013 02       		.uleb128 0x2
 1706 0014 24       		.uleb128 0x24
 1707 0015 00       		.byte	0
 1708 0016 0B       		.uleb128 0xb
 1709 0017 0B       		.uleb128 0xb
 1710 0018 3E       		.uleb128 0x3e
 1711 0019 0B       		.uleb128 0xb
 1712 001a 03       		.uleb128 0x3
 1713 001b 0E       		.uleb128 0xe
 1714 001c 00       		.byte	0
 1715 001d 00       		.byte	0
 1716 001e 03       		.uleb128 0x3
 1717 001f 16       		.uleb128 0x16
 1718 0020 00       		.byte	0
 1719 0021 03       		.uleb128 0x3
 1720 0022 0E       		.uleb128 0xe
 1721 0023 3A       		.uleb128 0x3a
 1722 0024 0B       		.uleb128 0xb
 1723 0025 3B       		.uleb128 0x3b
 1724 0026 0B       		.uleb128 0xb
 1725 0027 49       		.uleb128 0x49
 1726 0028 13       		.uleb128 0x13
 1727 0029 00       		.byte	0
 1728 002a 00       		.byte	0
 1729 002b 04       		.uleb128 0x4
 1730 002c 24       		.uleb128 0x24
 1731 002d 00       		.byte	0
 1732 002e 0B       		.uleb128 0xb
 1733 002f 0B       		.uleb128 0xb
 1734 0030 3E       		.uleb128 0x3e
 1735 0031 0B       		.uleb128 0xb
 1736 0032 03       		.uleb128 0x3
 1737 0033 08       		.uleb128 0x8
 1738 0034 00       		.byte	0
 1739 0035 00       		.byte	0
 1740 0036 05       		.uleb128 0x5
 1741 0037 35       		.uleb128 0x35
 1742 0038 00       		.byte	0
 1743 0039 49       		.uleb128 0x49
 1744 003a 13       		.uleb128 0x13
 1745 003b 00       		.byte	0
 1746 003c 00       		.byte	0
 1747 003d 06       		.uleb128 0x6
 1748 003e 13       		.uleb128 0x13
 1749 003f 01       		.byte	0x1
 1750 0040 03       		.uleb128 0x3
 1751 0041 0E       		.uleb128 0xe
 1752 0042 0B       		.uleb128 0xb
 1753 0043 0B       		.uleb128 0xb
 1754 0044 3A       		.uleb128 0x3a
 1755 0045 0B       		.uleb128 0xb
 1756 0046 3B       		.uleb128 0x3b
 1757 0047 0B       		.uleb128 0xb
 1758 0048 01       		.uleb128 0x1
 1759 0049 13       		.uleb128 0x13
 1760 004a 00       		.byte	0
 1761 004b 00       		.byte	0
ARM GAS  C:\Users\noeta\AppData\Local\Temp\ccdNbph8.s 			page 32


 1762 004c 07       		.uleb128 0x7
 1763 004d 0D       		.uleb128 0xd
 1764 004e 00       		.byte	0
 1765 004f 03       		.uleb128 0x3
 1766 0050 0E       		.uleb128 0xe
 1767 0051 3A       		.uleb128 0x3a
 1768 0052 0B       		.uleb128 0xb
 1769 0053 3B       		.uleb128 0x3b
 1770 0054 0B       		.uleb128 0xb
 1771 0055 49       		.uleb128 0x49
 1772 0056 13       		.uleb128 0x13
 1773 0057 38       		.uleb128 0x38
 1774 0058 0B       		.uleb128 0xb
 1775 0059 00       		.byte	0
 1776 005a 00       		.byte	0
 1777 005b 08       		.uleb128 0x8
 1778 005c 0D       		.uleb128 0xd
 1779 005d 00       		.byte	0
 1780 005e 03       		.uleb128 0x3
 1781 005f 08       		.uleb128 0x8
 1782 0060 3A       		.uleb128 0x3a
 1783 0061 0B       		.uleb128 0xb
 1784 0062 3B       		.uleb128 0x3b
 1785 0063 05       		.uleb128 0x5
 1786 0064 49       		.uleb128 0x49
 1787 0065 13       		.uleb128 0x13
 1788 0066 38       		.uleb128 0x38
 1789 0067 0B       		.uleb128 0xb
 1790 0068 00       		.byte	0
 1791 0069 00       		.byte	0
 1792 006a 09       		.uleb128 0x9
 1793 006b 0D       		.uleb128 0xd
 1794 006c 00       		.byte	0
 1795 006d 03       		.uleb128 0x3
 1796 006e 0E       		.uleb128 0xe
 1797 006f 3A       		.uleb128 0x3a
 1798 0070 0B       		.uleb128 0xb
 1799 0071 3B       		.uleb128 0x3b
 1800 0072 05       		.uleb128 0x5
 1801 0073 49       		.uleb128 0x49
 1802 0074 13       		.uleb128 0x13
 1803 0075 38       		.uleb128 0x38
 1804 0076 0B       		.uleb128 0xb
 1805 0077 00       		.byte	0
 1806 0078 00       		.byte	0
 1807 0079 0A       		.uleb128 0xa
 1808 007a 0F       		.uleb128 0xf
 1809 007b 00       		.byte	0
 1810 007c 0B       		.uleb128 0xb
 1811 007d 0B       		.uleb128 0xb
 1812 007e 49       		.uleb128 0x49
 1813 007f 13       		.uleb128 0x13
 1814 0080 00       		.byte	0
 1815 0081 00       		.byte	0
 1816 0082 0B       		.uleb128 0xb
 1817 0083 13       		.uleb128 0x13
 1818 0084 01       		.byte	0x1
ARM GAS  C:\Users\noeta\AppData\Local\Temp\ccdNbph8.s 			page 33


 1819 0085 03       		.uleb128 0x3
 1820 0086 0E       		.uleb128 0xe
 1821 0087 0B       		.uleb128 0xb
 1822 0088 0B       		.uleb128 0xb
 1823 0089 3A       		.uleb128 0x3a
 1824 008a 0B       		.uleb128 0xb
 1825 008b 3B       		.uleb128 0x3b
 1826 008c 05       		.uleb128 0x5
 1827 008d 01       		.uleb128 0x1
 1828 008e 13       		.uleb128 0x13
 1829 008f 00       		.byte	0
 1830 0090 00       		.byte	0
 1831 0091 0C       		.uleb128 0xc
 1832 0092 15       		.uleb128 0x15
 1833 0093 01       		.byte	0x1
 1834 0094 27       		.uleb128 0x27
 1835 0095 19       		.uleb128 0x19
 1836 0096 01       		.uleb128 0x1
 1837 0097 13       		.uleb128 0x13
 1838 0098 00       		.byte	0
 1839 0099 00       		.byte	0
 1840 009a 0D       		.uleb128 0xd
 1841 009b 05       		.uleb128 0x5
 1842 009c 00       		.byte	0
 1843 009d 49       		.uleb128 0x49
 1844 009e 13       		.uleb128 0x13
 1845 009f 00       		.byte	0
 1846 00a0 00       		.byte	0
 1847 00a1 0E       		.uleb128 0xe
 1848 00a2 0F       		.uleb128 0xf
 1849 00a3 00       		.byte	0
 1850 00a4 0B       		.uleb128 0xb
 1851 00a5 0B       		.uleb128 0xb
 1852 00a6 00       		.byte	0
 1853 00a7 00       		.byte	0
 1854 00a8 0F       		.uleb128 0xf
 1855 00a9 13       		.uleb128 0x13
 1856 00aa 01       		.byte	0x1
 1857 00ab 03       		.uleb128 0x3
 1858 00ac 0E       		.uleb128 0xe
 1859 00ad 0B       		.uleb128 0xb
 1860 00ae 05       		.uleb128 0x5
 1861 00af 3A       		.uleb128 0x3a
 1862 00b0 0B       		.uleb128 0xb
 1863 00b1 3B       		.uleb128 0x3b
 1864 00b2 05       		.uleb128 0x5
 1865 00b3 01       		.uleb128 0x1
 1866 00b4 13       		.uleb128 0x13
 1867 00b5 00       		.byte	0
 1868 00b6 00       		.byte	0
 1869 00b7 10       		.uleb128 0x10
 1870 00b8 0D       		.uleb128 0xd
 1871 00b9 00       		.byte	0
 1872 00ba 03       		.uleb128 0x3
 1873 00bb 0E       		.uleb128 0xe
 1874 00bc 3A       		.uleb128 0x3a
 1875 00bd 0B       		.uleb128 0xb
ARM GAS  C:\Users\noeta\AppData\Local\Temp\ccdNbph8.s 			page 34


 1876 00be 3B       		.uleb128 0x3b
 1877 00bf 05       		.uleb128 0x5
 1878 00c0 49       		.uleb128 0x49
 1879 00c1 13       		.uleb128 0x13
 1880 00c2 38       		.uleb128 0x38
 1881 00c3 05       		.uleb128 0x5
 1882 00c4 00       		.byte	0
 1883 00c5 00       		.byte	0
 1884 00c6 11       		.uleb128 0x11
 1885 00c7 0D       		.uleb128 0xd
 1886 00c8 00       		.byte	0
 1887 00c9 03       		.uleb128 0x3
 1888 00ca 08       		.uleb128 0x8
 1889 00cb 3A       		.uleb128 0x3a
 1890 00cc 0B       		.uleb128 0xb
 1891 00cd 3B       		.uleb128 0x3b
 1892 00ce 05       		.uleb128 0x5
 1893 00cf 49       		.uleb128 0x49
 1894 00d0 13       		.uleb128 0x13
 1895 00d1 38       		.uleb128 0x38
 1896 00d2 05       		.uleb128 0x5
 1897 00d3 00       		.byte	0
 1898 00d4 00       		.byte	0
 1899 00d5 12       		.uleb128 0x12
 1900 00d6 34       		.uleb128 0x34
 1901 00d7 00       		.byte	0
 1902 00d8 03       		.uleb128 0x3
 1903 00d9 0E       		.uleb128 0xe
 1904 00da 3A       		.uleb128 0x3a
 1905 00db 0B       		.uleb128 0xb
 1906 00dc 3B       		.uleb128 0x3b
 1907 00dd 05       		.uleb128 0x5
 1908 00de 49       		.uleb128 0x49
 1909 00df 13       		.uleb128 0x13
 1910 00e0 3F       		.uleb128 0x3f
 1911 00e1 19       		.uleb128 0x19
 1912 00e2 3C       		.uleb128 0x3c
 1913 00e3 19       		.uleb128 0x19
 1914 00e4 00       		.byte	0
 1915 00e5 00       		.byte	0
 1916 00e6 13       		.uleb128 0x13
 1917 00e7 34       		.uleb128 0x34
 1918 00e8 00       		.byte	0
 1919 00e9 03       		.uleb128 0x3
 1920 00ea 0E       		.uleb128 0xe
 1921 00eb 3A       		.uleb128 0x3a
 1922 00ec 0B       		.uleb128 0xb
 1923 00ed 3B       		.uleb128 0x3b
 1924 00ee 0B       		.uleb128 0xb
 1925 00ef 49       		.uleb128 0x49
 1926 00f0 13       		.uleb128 0x13
 1927 00f1 3F       		.uleb128 0x3f
 1928 00f2 19       		.uleb128 0x19
 1929 00f3 3C       		.uleb128 0x3c
 1930 00f4 19       		.uleb128 0x19
 1931 00f5 00       		.byte	0
 1932 00f6 00       		.byte	0
ARM GAS  C:\Users\noeta\AppData\Local\Temp\ccdNbph8.s 			page 35


 1933 00f7 14       		.uleb128 0x14
 1934 00f8 0D       		.uleb128 0xd
 1935 00f9 00       		.byte	0
 1936 00fa 03       		.uleb128 0x3
 1937 00fb 08       		.uleb128 0x8
 1938 00fc 3A       		.uleb128 0x3a
 1939 00fd 0B       		.uleb128 0xb
 1940 00fe 3B       		.uleb128 0x3b
 1941 00ff 0B       		.uleb128 0xb
 1942 0100 49       		.uleb128 0x49
 1943 0101 13       		.uleb128 0x13
 1944 0102 38       		.uleb128 0x38
 1945 0103 0B       		.uleb128 0xb
 1946 0104 00       		.byte	0
 1947 0105 00       		.byte	0
 1948 0106 15       		.uleb128 0x15
 1949 0107 13       		.uleb128 0x13
 1950 0108 01       		.byte	0x1
 1951 0109 0B       		.uleb128 0xb
 1952 010a 0B       		.uleb128 0xb
 1953 010b 3A       		.uleb128 0x3a
 1954 010c 0B       		.uleb128 0xb
 1955 010d 3B       		.uleb128 0x3b
 1956 010e 0B       		.uleb128 0xb
 1957 010f 01       		.uleb128 0x1
 1958 0110 13       		.uleb128 0x13
 1959 0111 00       		.byte	0
 1960 0112 00       		.byte	0
 1961 0113 16       		.uleb128 0x16
 1962 0114 13       		.uleb128 0x13
 1963 0115 01       		.byte	0x1
 1964 0116 0B       		.uleb128 0xb
 1965 0117 05       		.uleb128 0x5
 1966 0118 3A       		.uleb128 0x3a
 1967 0119 0B       		.uleb128 0xb
 1968 011a 3B       		.uleb128 0x3b
 1969 011b 0B       		.uleb128 0xb
 1970 011c 01       		.uleb128 0x1
 1971 011d 13       		.uleb128 0x13
 1972 011e 00       		.byte	0
 1973 011f 00       		.byte	0
 1974 0120 17       		.uleb128 0x17
 1975 0121 01       		.uleb128 0x1
 1976 0122 01       		.byte	0x1
 1977 0123 49       		.uleb128 0x49
 1978 0124 13       		.uleb128 0x13
 1979 0125 01       		.uleb128 0x1
 1980 0126 13       		.uleb128 0x13
 1981 0127 00       		.byte	0
 1982 0128 00       		.byte	0
 1983 0129 18       		.uleb128 0x18
 1984 012a 21       		.uleb128 0x21
 1985 012b 00       		.byte	0
 1986 012c 49       		.uleb128 0x49
 1987 012d 13       		.uleb128 0x13
 1988 012e 2F       		.uleb128 0x2f
 1989 012f 0B       		.uleb128 0xb
ARM GAS  C:\Users\noeta\AppData\Local\Temp\ccdNbph8.s 			page 36


 1990 0130 00       		.byte	0
 1991 0131 00       		.byte	0
 1992 0132 19       		.uleb128 0x19
 1993 0133 17       		.uleb128 0x17
 1994 0134 01       		.byte	0x1
 1995 0135 0B       		.uleb128 0xb
 1996 0136 0B       		.uleb128 0xb
 1997 0137 3A       		.uleb128 0x3a
 1998 0138 0B       		.uleb128 0xb
 1999 0139 3B       		.uleb128 0x3b
 2000 013a 0B       		.uleb128 0xb
 2001 013b 01       		.uleb128 0x1
 2002 013c 13       		.uleb128 0x13
 2003 013d 00       		.byte	0
 2004 013e 00       		.byte	0
 2005 013f 1A       		.uleb128 0x1a
 2006 0140 0D       		.uleb128 0xd
 2007 0141 00       		.byte	0
 2008 0142 03       		.uleb128 0x3
 2009 0143 0E       		.uleb128 0xe
 2010 0144 3A       		.uleb128 0x3a
 2011 0145 0B       		.uleb128 0xb
 2012 0146 3B       		.uleb128 0x3b
 2013 0147 05       		.uleb128 0x5
 2014 0148 49       		.uleb128 0x49
 2015 0149 13       		.uleb128 0x13
 2016 014a 00       		.byte	0
 2017 014b 00       		.byte	0
 2018 014c 1B       		.uleb128 0x1b
 2019 014d 26       		.uleb128 0x26
 2020 014e 00       		.byte	0
 2021 014f 49       		.uleb128 0x49
 2022 0150 13       		.uleb128 0x13
 2023 0151 00       		.byte	0
 2024 0152 00       		.byte	0
 2025 0153 1C       		.uleb128 0x1c
 2026 0154 34       		.uleb128 0x34
 2027 0155 00       		.byte	0
 2028 0156 03       		.uleb128 0x3
 2029 0157 08       		.uleb128 0x8
 2030 0158 3A       		.uleb128 0x3a
 2031 0159 0B       		.uleb128 0xb
 2032 015a 3B       		.uleb128 0x3b
 2033 015b 05       		.uleb128 0x5
 2034 015c 49       		.uleb128 0x49
 2035 015d 13       		.uleb128 0x13
 2036 015e 3F       		.uleb128 0x3f
 2037 015f 19       		.uleb128 0x19
 2038 0160 3C       		.uleb128 0x3c
 2039 0161 19       		.uleb128 0x19
 2040 0162 00       		.byte	0
 2041 0163 00       		.byte	0
 2042 0164 1D       		.uleb128 0x1d
 2043 0165 34       		.uleb128 0x34
 2044 0166 00       		.byte	0
 2045 0167 03       		.uleb128 0x3
 2046 0168 0E       		.uleb128 0xe
ARM GAS  C:\Users\noeta\AppData\Local\Temp\ccdNbph8.s 			page 37


 2047 0169 3A       		.uleb128 0x3a
 2048 016a 0B       		.uleb128 0xb
 2049 016b 3B       		.uleb128 0x3b
 2050 016c 0B       		.uleb128 0xb
 2051 016d 49       		.uleb128 0x49
 2052 016e 13       		.uleb128 0x13
 2053 016f 02       		.uleb128 0x2
 2054 0170 18       		.uleb128 0x18
 2055 0171 00       		.byte	0
 2056 0172 00       		.byte	0
 2057 0173 1E       		.uleb128 0x1e
 2058 0174 2E       		.uleb128 0x2e
 2059 0175 01       		.byte	0x1
 2060 0176 3F       		.uleb128 0x3f
 2061 0177 19       		.uleb128 0x19
 2062 0178 03       		.uleb128 0x3
 2063 0179 0E       		.uleb128 0xe
 2064 017a 3A       		.uleb128 0x3a
 2065 017b 0B       		.uleb128 0xb
 2066 017c 3B       		.uleb128 0x3b
 2067 017d 0B       		.uleb128 0xb
 2068 017e 27       		.uleb128 0x27
 2069 017f 19       		.uleb128 0x19
 2070 0180 49       		.uleb128 0x49
 2071 0181 13       		.uleb128 0x13
 2072 0182 11       		.uleb128 0x11
 2073 0183 01       		.uleb128 0x1
 2074 0184 12       		.uleb128 0x12
 2075 0185 06       		.uleb128 0x6
 2076 0186 40       		.uleb128 0x40
 2077 0187 18       		.uleb128 0x18
 2078 0188 9742     		.uleb128 0x2117
 2079 018a 19       		.uleb128 0x19
 2080 018b 01       		.uleb128 0x1
 2081 018c 13       		.uleb128 0x13
 2082 018d 00       		.byte	0
 2083 018e 00       		.byte	0
 2084 018f 1F       		.uleb128 0x1f
 2085 0190 898201   		.uleb128 0x4109
 2086 0193 00       		.byte	0
 2087 0194 11       		.uleb128 0x11
 2088 0195 01       		.uleb128 0x1
 2089 0196 31       		.uleb128 0x31
 2090 0197 13       		.uleb128 0x13
 2091 0198 00       		.byte	0
 2092 0199 00       		.byte	0
 2093 019a 20       		.uleb128 0x20
 2094 019b 2E       		.uleb128 0x2e
 2095 019c 01       		.byte	0x1
 2096 019d 3F       		.uleb128 0x3f
 2097 019e 19       		.uleb128 0x19
 2098 019f 03       		.uleb128 0x3
 2099 01a0 0E       		.uleb128 0xe
 2100 01a1 3A       		.uleb128 0x3a
 2101 01a2 0B       		.uleb128 0xb
 2102 01a3 3B       		.uleb128 0x3b
 2103 01a4 0B       		.uleb128 0xb
ARM GAS  C:\Users\noeta\AppData\Local\Temp\ccdNbph8.s 			page 38


 2104 01a5 27       		.uleb128 0x27
 2105 01a6 19       		.uleb128 0x19
 2106 01a7 11       		.uleb128 0x11
 2107 01a8 01       		.uleb128 0x1
 2108 01a9 12       		.uleb128 0x12
 2109 01aa 06       		.uleb128 0x6
 2110 01ab 40       		.uleb128 0x40
 2111 01ac 18       		.uleb128 0x18
 2112 01ad 9742     		.uleb128 0x2117
 2113 01af 19       		.uleb128 0x19
 2114 01b0 01       		.uleb128 0x1
 2115 01b1 13       		.uleb128 0x13
 2116 01b2 00       		.byte	0
 2117 01b3 00       		.byte	0
 2118 01b4 21       		.uleb128 0x21
 2119 01b5 898201   		.uleb128 0x4109
 2120 01b8 01       		.byte	0x1
 2121 01b9 11       		.uleb128 0x11
 2122 01ba 01       		.uleb128 0x1
 2123 01bb 31       		.uleb128 0x31
 2124 01bc 13       		.uleb128 0x13
 2125 01bd 01       		.uleb128 0x1
 2126 01be 13       		.uleb128 0x13
 2127 01bf 00       		.byte	0
 2128 01c0 00       		.byte	0
 2129 01c1 22       		.uleb128 0x22
 2130 01c2 8A8201   		.uleb128 0x410a
 2131 01c5 00       		.byte	0
 2132 01c6 02       		.uleb128 0x2
 2133 01c7 18       		.uleb128 0x18
 2134 01c8 9142     		.uleb128 0x2111
 2135 01ca 18       		.uleb128 0x18
 2136 01cb 00       		.byte	0
 2137 01cc 00       		.byte	0
 2138 01cd 23       		.uleb128 0x23
 2139 01ce 2E       		.uleb128 0x2e
 2140 01cf 01       		.byte	0x1
 2141 01d0 03       		.uleb128 0x3
 2142 01d1 0E       		.uleb128 0xe
 2143 01d2 3A       		.uleb128 0x3a
 2144 01d3 0B       		.uleb128 0xb
 2145 01d4 3B       		.uleb128 0x3b
 2146 01d5 0B       		.uleb128 0xb
 2147 01d6 27       		.uleb128 0x27
 2148 01d7 19       		.uleb128 0x19
 2149 01d8 11       		.uleb128 0x11
 2150 01d9 01       		.uleb128 0x1
 2151 01da 12       		.uleb128 0x12
 2152 01db 06       		.uleb128 0x6
 2153 01dc 40       		.uleb128 0x40
 2154 01dd 18       		.uleb128 0x18
 2155 01de 9742     		.uleb128 0x2117
 2156 01e0 19       		.uleb128 0x19
 2157 01e1 01       		.uleb128 0x1
 2158 01e2 13       		.uleb128 0x13
 2159 01e3 00       		.byte	0
 2160 01e4 00       		.byte	0
ARM GAS  C:\Users\noeta\AppData\Local\Temp\ccdNbph8.s 			page 39


 2161 01e5 24       		.uleb128 0x24
 2162 01e6 05       		.uleb128 0x5
 2163 01e7 00       		.byte	0
 2164 01e8 03       		.uleb128 0x3
 2165 01e9 08       		.uleb128 0x8
 2166 01ea 3A       		.uleb128 0x3a
 2167 01eb 0B       		.uleb128 0xb
 2168 01ec 3B       		.uleb128 0x3b
 2169 01ed 0B       		.uleb128 0xb
 2170 01ee 49       		.uleb128 0x49
 2171 01ef 13       		.uleb128 0x13
 2172 01f0 02       		.uleb128 0x2
 2173 01f1 17       		.uleb128 0x17
 2174 01f2 00       		.byte	0
 2175 01f3 00       		.byte	0
 2176 01f4 25       		.uleb128 0x25
 2177 01f5 34       		.uleb128 0x34
 2178 01f6 00       		.byte	0
 2179 01f7 03       		.uleb128 0x3
 2180 01f8 0E       		.uleb128 0xe
 2181 01f9 49       		.uleb128 0x49
 2182 01fa 13       		.uleb128 0x13
 2183 01fb 34       		.uleb128 0x34
 2184 01fc 19       		.uleb128 0x19
 2185 01fd 02       		.uleb128 0x2
 2186 01fe 18       		.uleb128 0x18
 2187 01ff 00       		.byte	0
 2188 0200 00       		.byte	0
 2189 0201 26       		.uleb128 0x26
 2190 0202 0B       		.uleb128 0xb
 2191 0203 01       		.byte	0x1
 2192 0204 11       		.uleb128 0x11
 2193 0205 01       		.uleb128 0x1
 2194 0206 12       		.uleb128 0x12
 2195 0207 06       		.uleb128 0x6
 2196 0208 01       		.uleb128 0x1
 2197 0209 13       		.uleb128 0x13
 2198 020a 00       		.byte	0
 2199 020b 00       		.byte	0
 2200 020c 27       		.uleb128 0x27
 2201 020d 2E       		.uleb128 0x2e
 2202 020e 01       		.byte	0x1
 2203 020f 3F       		.uleb128 0x3f
 2204 0210 19       		.uleb128 0x19
 2205 0211 03       		.uleb128 0x3
 2206 0212 0E       		.uleb128 0xe
 2207 0213 3A       		.uleb128 0x3a
 2208 0214 0B       		.uleb128 0xb
 2209 0215 3B       		.uleb128 0x3b
 2210 0216 0B       		.uleb128 0xb
 2211 0217 49       		.uleb128 0x49
 2212 0218 13       		.uleb128 0x13
 2213 0219 3C       		.uleb128 0x3c
 2214 021a 19       		.uleb128 0x19
 2215 021b 01       		.uleb128 0x1
 2216 021c 13       		.uleb128 0x13
 2217 021d 00       		.byte	0
ARM GAS  C:\Users\noeta\AppData\Local\Temp\ccdNbph8.s 			page 40


 2218 021e 00       		.byte	0
 2219 021f 28       		.uleb128 0x28
 2220 0220 18       		.uleb128 0x18
 2221 0221 00       		.byte	0
 2222 0222 00       		.byte	0
 2223 0223 00       		.byte	0
 2224 0224 29       		.uleb128 0x29
 2225 0225 898201   		.uleb128 0x4109
 2226 0228 01       		.byte	0x1
 2227 0229 11       		.uleb128 0x11
 2228 022a 01       		.uleb128 0x1
 2229 022b 31       		.uleb128 0x31
 2230 022c 13       		.uleb128 0x13
 2231 022d 00       		.byte	0
 2232 022e 00       		.byte	0
 2233 022f 2A       		.uleb128 0x2a
 2234 0230 1D       		.uleb128 0x1d
 2235 0231 01       		.byte	0x1
 2236 0232 31       		.uleb128 0x31
 2237 0233 13       		.uleb128 0x13
 2238 0234 52       		.uleb128 0x52
 2239 0235 01       		.uleb128 0x1
 2240 0236 55       		.uleb128 0x55
 2241 0237 17       		.uleb128 0x17
 2242 0238 58       		.uleb128 0x58
 2243 0239 0B       		.uleb128 0xb
 2244 023a 59       		.uleb128 0x59
 2245 023b 0B       		.uleb128 0xb
 2246 023c 00       		.byte	0
 2247 023d 00       		.byte	0
 2248 023e 2B       		.uleb128 0x2b
 2249 023f 05       		.uleb128 0x5
 2250 0240 00       		.byte	0
 2251 0241 31       		.uleb128 0x31
 2252 0242 13       		.uleb128 0x13
 2253 0243 02       		.uleb128 0x2
 2254 0244 18       		.uleb128 0x18
 2255 0245 00       		.byte	0
 2256 0246 00       		.byte	0
 2257 0247 2C       		.uleb128 0x2c
 2258 0248 2E       		.uleb128 0x2e
 2259 0249 01       		.byte	0x1
 2260 024a 03       		.uleb128 0x3
 2261 024b 0E       		.uleb128 0xe
 2262 024c 3A       		.uleb128 0x3a
 2263 024d 0B       		.uleb128 0xb
 2264 024e 3B       		.uleb128 0x3b
 2265 024f 0B       		.uleb128 0xb
 2266 0250 27       		.uleb128 0x27
 2267 0251 19       		.uleb128 0x19
 2268 0252 20       		.uleb128 0x20
 2269 0253 0B       		.uleb128 0xb
 2270 0254 01       		.uleb128 0x1
 2271 0255 13       		.uleb128 0x13
 2272 0256 00       		.byte	0
 2273 0257 00       		.byte	0
 2274 0258 2D       		.uleb128 0x2d
ARM GAS  C:\Users\noeta\AppData\Local\Temp\ccdNbph8.s 			page 41


 2275 0259 05       		.uleb128 0x5
 2276 025a 00       		.byte	0
 2277 025b 03       		.uleb128 0x3
 2278 025c 0E       		.uleb128 0xe
 2279 025d 3A       		.uleb128 0x3a
 2280 025e 0B       		.uleb128 0xb
 2281 025f 3B       		.uleb128 0x3b
 2282 0260 0B       		.uleb128 0xb
 2283 0261 49       		.uleb128 0x49
 2284 0262 13       		.uleb128 0x13
 2285 0263 00       		.byte	0
 2286 0264 00       		.byte	0
 2287 0265 2E       		.uleb128 0x2e
 2288 0266 2E       		.uleb128 0x2e
 2289 0267 00       		.byte	0
 2290 0268 3F       		.uleb128 0x3f
 2291 0269 19       		.uleb128 0x19
 2292 026a 3C       		.uleb128 0x3c
 2293 026b 19       		.uleb128 0x19
 2294 026c 6E       		.uleb128 0x6e
 2295 026d 0E       		.uleb128 0xe
 2296 026e 03       		.uleb128 0x3
 2297 026f 0E       		.uleb128 0xe
 2298 0270 00       		.byte	0
 2299 0271 00       		.byte	0
 2300 0272 2F       		.uleb128 0x2f
 2301 0273 2E       		.uleb128 0x2e
 2302 0274 00       		.byte	0
 2303 0275 3F       		.uleb128 0x3f
 2304 0276 19       		.uleb128 0x19
 2305 0277 3C       		.uleb128 0x3c
 2306 0278 19       		.uleb128 0x19
 2307 0279 6E       		.uleb128 0x6e
 2308 027a 0E       		.uleb128 0xe
 2309 027b 03       		.uleb128 0x3
 2310 027c 0E       		.uleb128 0xe
 2311 027d 3A       		.uleb128 0x3a
 2312 027e 0B       		.uleb128 0xb
 2313 027f 3B       		.uleb128 0x3b
 2314 0280 0B       		.uleb128 0xb
 2315 0281 00       		.byte	0
 2316 0282 00       		.byte	0
 2317 0283 30       		.uleb128 0x30
 2318 0284 36       		.uleb128 0x36
 2319 0285 00       		.byte	0
 2320 0286 02       		.uleb128 0x2
 2321 0287 18       		.uleb128 0x18
 2322 0288 00       		.byte	0
 2323 0289 00       		.byte	0
 2324 028a 00       		.byte	0
 2325              		.section	.debug_loc,"",%progbits
 2326              	.Ldebug_loc0:
 2327              	.LLST0:
 2328 0000 00000000 		.4byte	.LVL0
 2329 0004 14000000 		.4byte	.LVL1
 2330 0008 0100     		.2byte	0x1
 2331 000a 50       		.byte	0x50
ARM GAS  C:\Users\noeta\AppData\Local\Temp\ccdNbph8.s 			page 42


 2332 000b 14000000 		.4byte	.LVL1
 2333 000f 34000000 		.4byte	.LFE219
 2334 0013 0400     		.2byte	0x4
 2335 0015 F3       		.byte	0xf3
 2336 0016 01       		.uleb128 0x1
 2337 0017 50       		.byte	0x50
 2338 0018 9F       		.byte	0x9f
 2339 0019 00000000 		.4byte	0
 2340 001d 00000000 		.4byte	0
 2341              		.section	.debug_aranges,"",%progbits
 2342 0000 2C000000 		.4byte	0x2c
 2343 0004 0200     		.2byte	0x2
 2344 0006 00000000 		.4byte	.Ldebug_info0
 2345 000a 04       		.byte	0x4
 2346 000b 00       		.byte	0
 2347 000c 0000     		.2byte	0
 2348 000e 0000     		.2byte	0
 2349 0010 00000000 		.4byte	.LFB219
 2350 0014 34000000 		.4byte	.LFE219-.LFB219
 2351 0018 00000000 		.4byte	.LFB220
 2352 001c 38000000 		.4byte	.LFE220-.LFB220
 2353 0020 00000000 		.4byte	.LFB221
 2354 0024 2C000000 		.4byte	.LFE221-.LFB221
 2355 0028 00000000 		.4byte	0
 2356 002c 00000000 		.4byte	0
 2357              		.section	.debug_ranges,"",%progbits
 2358              	.Ldebug_ranges0:
 2359 0000 02000000 		.4byte	.LBB5
 2360 0004 04000000 		.4byte	.LBE5
 2361 0008 06000000 		.4byte	.LBB9
 2362 000c 0A000000 		.4byte	.LBE9
 2363 0010 0E000000 		.4byte	.LBB10
 2364 0014 10000000 		.4byte	.LBE10
 2365 0018 00000000 		.4byte	0
 2366 001c 00000000 		.4byte	0
 2367 0020 00000000 		.4byte	.LFB219
 2368 0024 34000000 		.4byte	.LFE219
 2369 0028 00000000 		.4byte	.LFB220
 2370 002c 38000000 		.4byte	.LFE220
 2371 0030 00000000 		.4byte	.LFB221
 2372 0034 2C000000 		.4byte	.LFE221
 2373 0038 00000000 		.4byte	0
 2374 003c 00000000 		.4byte	0
 2375              		.section	.debug_line,"",%progbits
 2376              	.Ldebug_line0:
 2377 0000 09040000 		.section	.debug_str,"MS",%progbits,1
 2377      02009B03 
 2377      00000201 
 2377      FB0E0D00 
 2377      01010101 
 2378              	.LASF148:
 2379 0000 63665F6F 		.ascii	"cf_off_older\000"
 2379      66665F6F 
 2379      6C646572 
 2379      00
 2380              	.LASF63:
 2381 000d 72656164 		.ascii	"ready_list_t\000"
ARM GAS  C:\Users\noeta\AppData\Local\Temp\ccdNbph8.s 			page 43


 2381      795F6C69 
 2381      73745F74 
 2381      00
 2382              	.LASF101:
 2383 001a 73655F74 		.ascii	"se_time\000"
 2383      696D6500 
 2384              	.LASF21:
 2385 0022 73697A65 		.ascii	"size_t\000"
 2385      5F7400
 2386              	.LASF122:
 2387 0029 7264796D 		.ascii	"rdymsg\000"
 2387      736700
 2388              	.LASF20:
 2389 0030 75696E74 		.ascii	"uint64_t\000"
 2389      36345F74 
 2389      00
 2390              	.LASF93:
 2391 0039 6B65726E 		.ascii	"kernel_stats\000"
 2391      656C5F73 
 2391      74617473 
 2391      00
 2392              	.LASF2:
 2393 0046 5F5F7569 		.ascii	"__uint8_t\000"
 2393      6E74385F 
 2393      7400
 2394              	.LASF100:
 2395 0050 706F7274 		.ascii	"port_intctx\000"
 2395      5F696E74 
 2395      63747800 
 2396              	.LASF62:
 2397 005c 63685F74 		.ascii	"ch_threads_queue\000"
 2397      68726561 
 2397      64735F71 
 2397      75657565 
 2397      00
 2398              	.LASF82:
 2399 006d 73797374 		.ascii	"system_debug_t\000"
 2399      656D5F64 
 2399      65627567 
 2399      5F7400
 2400              	.LASF113:
 2401 007c 776F7273 		.ascii	"worst\000"
 2401      7400
 2402              	.LASF116:
 2403 0082 74696D65 		.ascii	"time_measurement_t\000"
 2403      5F6D6561 
 2403      73757265 
 2403      6D656E74 
 2403      5F7400
 2404              	.LASF13:
 2405 0095 6C6F6E67 		.ascii	"long long unsigned int\000"
 2405      206C6F6E 
 2405      6720756E 
 2405      7369676E 
 2405      65642069 
 2406              	.LASF109:
 2407 00ac 63685F74 		.ascii	"ch_trace_buffer_t\000"
ARM GAS  C:\Users\noeta\AppData\Local\Temp\ccdNbph8.s 			page 44


 2407      72616365 
 2407      5F627566 
 2407      6665725F 
 2407      7400
 2408              	.LASF144:
 2409 00be 63685F74 		.ascii	"ch_threadsize\000"
 2409      68726561 
 2409      6473697A 
 2409      6500
 2410              	.LASF123:
 2411 00cc 65786974 		.ascii	"exitcode\000"
 2411      636F6465 
 2411      00
 2412              	.LASF92:
 2413 00d5 6D61696E 		.ascii	"mainthread\000"
 2413      74687265 
 2413      616400
 2414              	.LASF79:
 2415 00e0 76697274 		.ascii	"virtual_timers_list_t\000"
 2415      75616C5F 
 2415      74696D65 
 2415      72735F6C 
 2415      6973745F 
 2416              	.LASF95:
 2417 00f6 49544D5F 		.ascii	"ITM_RxBuffer\000"
 2417      52784275 
 2417      66666572 
 2417      00
 2418              	.LASF24:
 2419 0103 72747469 		.ascii	"rttime_t\000"
 2419      6D655F74 
 2419      00
 2420              	.LASF38:
 2421 010c 705F7072 		.ascii	"p_prio\000"
 2421      696F00
 2422              	.LASF151:
 2423 0113 63665F6F 		.ascii	"cf_off_state\000"
 2423      66665F73 
 2423      74617465 
 2423      00
 2424              	.LASF16:
 2425 0120 696E7431 		.ascii	"int16_t\000"
 2425      365F7400 
 2426              	.LASF158:
 2427 0128 6D757465 		.ascii	"mutex_t\000"
 2427      785F7400 
 2428              	.LASF11:
 2429 0130 6C6F6E67 		.ascii	"long long int\000"
 2429      206C6F6E 
 2429      6720696E 
 2429      7400
 2430              	.LASF0:
 2431 013e 7369676E 		.ascii	"signed char\000"
 2431      65642063 
 2431      68617200 
 2432              	.LASF150:
 2433 014a 63665F6F 		.ascii	"cf_off_stklimit\000"
ARM GAS  C:\Users\noeta\AppData\Local\Temp\ccdNbph8.s 			page 45


 2433      66665F73 
 2433      746B6C69 
 2433      6D697400 
 2434              	.LASF152:
 2435 015a 63665F6F 		.ascii	"cf_off_flags\000"
 2435      66665F66 
 2435      6C616773 
 2435      00
 2436              	.LASF55:
 2437 0167 705F6D70 		.ascii	"p_mpool\000"
 2437      6F6F6C00 
 2438              	.LASF133:
 2439 016f 6D5F7175 		.ascii	"m_queue\000"
 2439      65756500 
 2440              	.LASF91:
 2441 0177 76746C69 		.ascii	"vtlist\000"
 2441      737400
 2442              	.LASF28:
 2443 017e 74736C69 		.ascii	"tslices_t\000"
 2443      6365735F 
 2443      7400
 2444              	.LASF125:
 2445 0188 77747472 		.ascii	"wttrp\000"
 2445      7000
 2446              	.LASF89:
 2447 018e 63685F73 		.ascii	"ch_system\000"
 2447      79737465 
 2447      6D00
 2448              	.LASF8:
 2449 0198 6C6F6E67 		.ascii	"long int\000"
 2449      20696E74 
 2449      00
 2450              	.LASF26:
 2451 01a1 74737461 		.ascii	"tstate_t\000"
 2451      74655F74 
 2451      00
 2452              	.LASF102:
 2453 01aa 73655F74 		.ascii	"se_tp\000"
 2453      7000
 2454              	.LASF156:
 2455 01b0 63686465 		.ascii	"chdebug_t\000"
 2455      6275675F 
 2455      7400
 2456              	.LASF169:
 2457 01ba 44697374 		.ascii	"Distance\000"
 2457      616E6365 
 2457      00
 2458              	.LASF40:
 2459 01c3 705F6E65 		.ascii	"p_newer\000"
 2459      77657200 
 2460              	.LASF130:
 2461 01cb 735F7175 		.ascii	"s_queue\000"
 2461      65756500 
 2462              	.LASF106:
 2463 01d3 74625F73 		.ascii	"tb_size\000"
 2463      697A6500 
 2464              	.LASF68:
ARM GAS  C:\Users\noeta\AppData\Local\Temp\ccdNbph8.s 			page 46


 2465 01db 725F6E65 		.ascii	"r_newer\000"
 2465      77657200 
 2466              	.LASF168:
 2467 01e3 64697374 		.ascii	"distance_start\000"
 2467      616E6365 
 2467      5F737461 
 2467      727400
 2468              	.LASF97:
 2469 01f2 72656761 		.ascii	"regarm_t\000"
 2469      726D5F74 
 2469      00
 2470              	.LASF75:
 2471 01fb 76745F70 		.ascii	"vt_prev\000"
 2471      72657600 
 2472              	.LASF3:
 2473 0203 5F5F696E 		.ascii	"__int16_t\000"
 2473      7431365F 
 2473      7400
 2474              	.LASF83:
 2475 020d 63685F73 		.ascii	"ch_system_debug\000"
 2475      79737465 
 2475      6D5F6465 
 2475      62756700 
 2476              	.LASF166:
 2477 021d 433A5C55 		.ascii	"C:\\Users\\noeta\\OneDrive\\Bureau\\Projet_epuck2\\"
 2477      73657273 
 2477      5C6E6F65 
 2477      74615C4F 
 2477      6E654472 
 2478 024a 43616D52 		.ascii	"CamReg_correction\000"
 2478      65675F63 
 2478      6F727265 
 2478      6374696F 
 2478      6E00
 2479              	.LASF136:
 2480 025c 6D5F636E 		.ascii	"m_cnt\000"
 2480      7400
 2481              	.LASF74:
 2482 0262 76745F6E 		.ascii	"vt_next\000"
 2482      65787400 
 2483              	.LASF86:
 2484 026a 6C6F636B 		.ascii	"lock_cnt\000"
 2484      5F636E74 
 2484      00
 2485              	.LASF94:
 2486 0273 69646C65 		.ascii	"idle_thread_wa\000"
 2486      5F746872 
 2486      6561645F 
 2486      776100
 2487              	.LASF32:
 2488 0282 636E745F 		.ascii	"cnt_t\000"
 2488      7400
 2489              	.LASF43:
 2490 0288 705F7374 		.ascii	"p_stklimit\000"
 2490      6B6C696D 
 2490      697400
 2491              	.LASF14:
ARM GAS  C:\Users\noeta\AppData\Local\Temp\ccdNbph8.s 			page 47


 2492 0293 756E7369 		.ascii	"unsigned int\000"
 2492      676E6564 
 2492      20696E74 
 2492      00
 2493              	.LASF164:
 2494 02a0 474E5520 		.ascii	"GNU C11 7.2.1 20170904 (release) [ARM/embedded-7-br"
 2494      43313120 
 2494      372E322E 
 2494      31203230 
 2494      31373039 
 2495 02d3 616E6368 		.ascii	"anch revision 255204] -mcpu=cortex-m4 -mfloat-abi=h"
 2495      20726576 
 2495      6973696F 
 2495      6E203235 
 2495      35323034 
 2496 0306 61726420 		.ascii	"ard -mfpu=fpv4-sp-d16 -mno-thumb-interwork -mthumb "
 2496      2D6D6670 
 2496      753D6670 
 2496      76342D73 
 2496      702D6431 
 2497 0339 2D676764 		.ascii	"-ggdb -O2 -fomit-frame-pointer -falign-functions=16"
 2497      62202D4F 
 2497      32202D66 
 2497      6F6D6974 
 2497      2D667261 
 2498 036c 202D666E 		.ascii	" -fno-strict-aliasing -fstack-protector-all -ffunct"
 2498      6F2D7374 
 2498      72696374 
 2498      2D616C69 
 2498      6173696E 
 2499 039f 696F6E2D 		.ascii	"ion-sections -fdata-sections -fno-common -fsingle-p"
 2499      73656374 
 2499      696F6E73 
 2499      202D6664 
 2499      6174612D 
 2500 03d2 72656369 		.ascii	"recision-constant\000"
 2500      73696F6E 
 2500      2D636F6E 
 2500      7374616E 
 2500      7400
 2501              	.LASF17:
 2502 03e4 75696E74 		.ascii	"uint16_t\000"
 2502      31365F74 
 2502      00
 2503              	.LASF96:
 2504 03ed 53797374 		.ascii	"SystemCoreClock\000"
 2504      656D436F 
 2504      7265436C 
 2504      6F636B00 
 2505              	.LASF48:
 2506 03fd 705F7469 		.ascii	"p_time\000"
 2506      6D6500
 2507              	.LASF126:
 2508 0404 77747365 		.ascii	"wtsemp\000"
 2508      6D7000
 2509              	.LASF76:
 2510 040b 76745F64 		.ascii	"vt_delta\000"
ARM GAS  C:\Users\noeta\AppData\Local\Temp\ccdNbph8.s 			page 48


 2510      656C7461 
 2510      00
 2511              	.LASF50:
 2512 0414 705F6D73 		.ascii	"p_msgqueue\000"
 2512      67717565 
 2512      756500
 2513              	.LASF157:
 2514 041f 63685F64 		.ascii	"ch_debug\000"
 2514      65627567 
 2514      00
 2515              	.LASF170:
 2516 0428 5F5F4655 		.ascii	"__FUNCTION__\000"
 2516      4E435449 
 2516      4F4E5F5F 
 2516      00
 2517              	.LASF117:
 2518 0435 6E5F6972 		.ascii	"n_irq\000"
 2518      7100
 2519              	.LASF131:
 2520 043b 735F636E 		.ascii	"s_cnt\000"
 2520      7400
 2521              	.LASF172:
 2522 0441 6E616D65 		.ascii	"name\000"
 2522      00
 2523              	.LASF6:
 2524 0446 73686F72 		.ascii	"short unsigned int\000"
 2524      7420756E 
 2524      7369676E 
 2524      65642069 
 2524      6E7400
 2525              	.LASF121:
 2526 0459 6B65726E 		.ascii	"kernel_stats_t\000"
 2526      656C5F73 
 2526      74617473 
 2526      5F7400
 2527              	.LASF59:
 2528 0468 63685F74 		.ascii	"ch_thread\000"
 2528      68726561 
 2528      6400
 2529              	.LASF30:
 2530 0472 6D73675F 		.ascii	"msg_t\000"
 2530      7400
 2531              	.LASF114:
 2532 0478 6C617374 		.ascii	"last\000"
 2532      00
 2533              	.LASF33:
 2534 047d 75636E74 		.ascii	"ucnt_t\000"
 2534      5F7400
 2535              	.LASF88:
 2536 0484 63685F73 		.ascii	"ch_system_t\000"
 2536      79737465 
 2536      6D5F7400 
 2537              	.LASF155:
 2538 0490 63665F6F 		.ascii	"cf_off_time\000"
 2538      66665F74 
 2538      696D6500 
 2539              	.LASF120:
ARM GAS  C:\Users\noeta\AppData\Local\Temp\ccdNbph8.s 			page 49


 2540 049c 6D5F6372 		.ascii	"m_crit_isr\000"
 2540      69745F69 
 2540      737200
 2541              	.LASF64:
 2542 04a7 63685F72 		.ascii	"ch_ready_list\000"
 2542      65616479 
 2542      5F6C6973 
 2542      7400
 2543              	.LASF31:
 2544 04b5 6576656E 		.ascii	"eventmask_t\000"
 2544      746D6173 
 2544      6B5F7400 
 2545              	.LASF7:
 2546 04c1 5F5F696E 		.ascii	"__int32_t\000"
 2546      7433325F 
 2546      7400
 2547              	.LASF167:
 2548 04cb 6765745F 		.ascii	"get_distance\000"
 2548      64697374 
 2548      616E6365 
 2548      00
 2549              	.LASF161:
 2550 04d8 63685468 		.ascii	"chThdCreateStatic\000"
 2550      64437265 
 2550      61746553 
 2550      74617469 
 2550      6300
 2551              	.LASF58:
 2552 04ea 74687265 		.ascii	"threads_list_t\000"
 2552      6164735F 
 2552      6C697374 
 2552      5F7400
 2553              	.LASF139:
 2554 04f9 63685F7A 		.ascii	"ch_zero\000"
 2554      65726F00 
 2555              	.LASF153:
 2556 0501 63665F6F 		.ascii	"cf_off_refs\000"
 2556      66665F72 
 2556      65667300 
 2557              	.LASF49:
 2558 050d 705F7761 		.ascii	"p_waiting\000"
 2558      6974696E 
 2558      6700
 2559              	.LASF23:
 2560 0517 7274636E 		.ascii	"rtcnt_t\000"
 2560      745F7400 
 2561              	.LASF80:
 2562 051f 63685F76 		.ascii	"ch_virtual_timers_list\000"
 2562      69727475 
 2562      616C5F74 
 2562      696D6572 
 2562      735F6C69 
 2563              	.LASF162:
 2564 0536 564C3533 		.ascii	"VL53L0X_get_dist_mm\000"
 2564      4C30585F 
 2564      6765745F 
 2564      64697374 
ARM GAS  C:\Users\noeta\AppData\Local\Temp\ccdNbph8.s 			page 50


 2564      5F6D6D00 
 2565              	.LASF22:
 2566 054a 6C6F6E67 		.ascii	"long double\000"
 2566      20646F75 
 2566      626C6500 
 2567              	.LASF143:
 2568 0556 63685F74 		.ascii	"ch_timesize\000"
 2568      696D6573 
 2568      697A6500 
 2569              	.LASF107:
 2570 0562 74625F70 		.ascii	"tb_ptr\000"
 2570      747200
 2571              	.LASF105:
 2572 0569 63685F73 		.ascii	"ch_swc_event_t\000"
 2572      77635F65 
 2572      76656E74 
 2572      5F7400
 2573              	.LASF149:
 2574 0578 63665F6F 		.ascii	"cf_off_name\000"
 2574      66665F6E 
 2574      616D6500 
 2575              	.LASF41:
 2576 0584 705F6F6C 		.ascii	"p_older\000"
 2576      64657200 
 2577              	.LASF67:
 2578 058c 725F6374 		.ascii	"r_ctx\000"
 2578      7800
 2579              	.LASF39:
 2580 0592 705F6374 		.ascii	"p_ctx\000"
 2580      7800
 2581              	.LASF111:
 2582 0598 746D5F63 		.ascii	"tm_calibration_t\000"
 2582      616C6962 
 2582      72617469 
 2582      6F6E5F74 
 2582      00
 2583              	.LASF70:
 2584 05a9 725F6375 		.ascii	"r_current\000"
 2584      7272656E 
 2584      7400
 2585              	.LASF69:
 2586 05b3 725F6F6C 		.ascii	"r_older\000"
 2586      64657200 
 2587              	.LASF12:
 2588 05bb 5F5F7569 		.ascii	"__uint64_t\000"
 2588      6E743634 
 2588      5F7400
 2589              	.LASF115:
 2590 05c6 63756D75 		.ascii	"cumulative\000"
 2590      6C617469 
 2590      766500
 2591              	.LASF98:
 2592 05d1 73746B61 		.ascii	"stkalign_t\000"
 2592      6C69676E 
 2592      5F7400
 2593              	.LASF27:
 2594 05dc 74726566 		.ascii	"trefs_t\000"
ARM GAS  C:\Users\noeta\AppData\Local\Temp\ccdNbph8.s 			page 51


 2594      735F7400 
 2595              	.LASF108:
 2596 05e4 74625F62 		.ascii	"tb_buffer\000"
 2596      75666665 
 2596      7200
 2597              	.LASF142:
 2598 05ee 63685F70 		.ascii	"ch_ptrsize\000"
 2598      74727369 
 2598      7A6500
 2599              	.LASF72:
 2600 05f9 76697274 		.ascii	"virtual_timer_t\000"
 2600      75616C5F 
 2600      74696D65 
 2600      725F7400 
 2601              	.LASF37:
 2602 0609 705F7072 		.ascii	"p_prev\000"
 2602      657600
 2603              	.LASF29:
 2604 0610 74707269 		.ascii	"tprio_t\000"
 2604      6F5F7400 
 2605              	.LASF118:
 2606 0618 6E5F6374 		.ascii	"n_ctxswc\000"
 2606      78737763 
 2606      00
 2607              	.LASF18:
 2608 0621 696E7433 		.ascii	"int32_t\000"
 2608      325F7400 
 2609              	.LASF1:
 2610 0629 756E7369 		.ascii	"unsigned char\000"
 2610      676E6564 
 2610      20636861 
 2610      7200
 2611              	.LASF53:
 2612 0637 705F6D74 		.ascii	"p_mtxlist\000"
 2612      786C6973 
 2612      7400
 2613              	.LASF4:
 2614 0641 73686F72 		.ascii	"short int\000"
 2614      7420696E 
 2614      7400
 2615              	.LASF44:
 2616 064b 705F7374 		.ascii	"p_state\000"
 2616      61746500 
 2617              	.LASF47:
 2618 0653 705F7072 		.ascii	"p_preempt\000"
 2618      65656D70 
 2618      7400
 2619              	.LASF66:
 2620 065d 725F7072 		.ascii	"r_prio\000"
 2620      696F00
 2621              	.LASF128:
 2622 0664 65776D61 		.ascii	"ewmask\000"
 2622      736B00
 2623              	.LASF36:
 2624 066b 705F6E65 		.ascii	"p_next\000"
 2624      787400
 2625              	.LASF25:
ARM GAS  C:\Users\noeta\AppData\Local\Temp\ccdNbph8.s 			page 52


 2626 0672 746D6F64 		.ascii	"tmode_t\000"
 2626      655F7400 
 2627              	.LASF154:
 2628 067a 63665F6F 		.ascii	"cf_off_preempt\000"
 2628      66665F70 
 2628      7265656D 
 2628      707400
 2629              	.LASF45:
 2630 0689 705F666C 		.ascii	"p_flags\000"
 2630      61677300 
 2631              	.LASF56:
 2632 0691 705F7374 		.ascii	"p_stats\000"
 2632      61747300 
 2633              	.LASF61:
 2634 0699 74687265 		.ascii	"threads_queue_t\000"
 2634      6164735F 
 2634      71756575 
 2634      655F7400 
 2635              	.LASF73:
 2636 06a9 63685F76 		.ascii	"ch_virtual_timer\000"
 2636      69727475 
 2636      616C5F74 
 2636      696D6572 
 2636      00
 2637              	.LASF147:
 2638 06ba 63665F6F 		.ascii	"cf_off_newer\000"
 2638      66665F6E 
 2638      65776572 
 2638      00
 2639              	.LASF173:
 2640 06c7 5F5F7374 		.ascii	"__stack_chk_fail\000"
 2640      61636B5F 
 2640      63686B5F 
 2640      6661696C 
 2640      00
 2641              	.LASF129:
 2642 06d8 63685F73 		.ascii	"ch_semaphore\000"
 2642      656D6170 
 2642      686F7265 
 2642      00
 2643              	.LASF52:
 2644 06e5 705F6570 		.ascii	"p_epending\000"
 2644      656E6469 
 2644      6E6700
 2645              	.LASF163:
 2646 06f0 63685468 		.ascii	"chThdSleep\000"
 2646      64536C65 
 2646      657000
 2647              	.LASF19:
 2648 06fb 75696E74 		.ascii	"uint32_t\000"
 2648      33325F74 
 2648      00
 2649              	.LASF145:
 2650 0704 63665F6F 		.ascii	"cf_off_prio\000"
 2650      66665F70 
 2650      72696F00 
 2651              	.LASF65:
ARM GAS  C:\Users\noeta\AppData\Local\Temp\ccdNbph8.s 			page 53


 2652 0710 725F7175 		.ascii	"r_queue\000"
 2652      65756500 
 2653              	.LASF60:
 2654 0718 63685F74 		.ascii	"ch_threads_list\000"
 2654      68726561 
 2654      64735F6C 
 2654      69737400 
 2655              	.LASF140:
 2656 0728 63685F73 		.ascii	"ch_size\000"
 2656      697A6500 
 2657              	.LASF10:
 2658 0730 6C6F6E67 		.ascii	"long unsigned int\000"
 2658      20756E73 
 2658      69676E65 
 2658      6420696E 
 2658      7400
 2659              	.LASF137:
 2660 0742 63686172 		.ascii	"char\000"
 2660      00
 2661              	.LASF127:
 2662 0747 77746D74 		.ascii	"wtmtxp\000"
 2662      787000
 2663              	.LASF5:
 2664 074e 5F5F7569 		.ascii	"__uint16_t\000"
 2664      6E743136 
 2664      5F7400
 2665              	.LASF35:
 2666 0759 74687265 		.ascii	"thread_t\000"
 2666      61645F74 
 2666      00
 2667              	.LASF112:
 2668 0762 62657374 		.ascii	"best\000"
 2668      00
 2669              	.LASF135:
 2670 0767 6D5F6E65 		.ascii	"m_next\000"
 2670      787400
 2671              	.LASF34:
 2672 076e 73797374 		.ascii	"systime_t\000"
 2672      696D655F 
 2672      7400
 2673              	.LASF54:
 2674 0778 705F7265 		.ascii	"p_realprio\000"
 2674      616C7072 
 2674      696F00
 2675              	.LASF71:
 2676 0783 76746675 		.ascii	"vtfunc_t\000"
 2676      6E635F74 
 2676      00
 2677              	.LASF9:
 2678 078c 5F5F7569 		.ascii	"__uint32_t\000"
 2678      6E743332 
 2678      5F7400
 2679              	.LASF84:
 2680 0797 70616E69 		.ascii	"panic_msg\000"
 2680      635F6D73 
 2680      6700
 2681              	.LASF110:
ARM GAS  C:\Users\noeta\AppData\Local\Temp\ccdNbph8.s 			page 54


 2682 07a1 6F666673 		.ascii	"offset\000"
 2682      657400
 2683              	.LASF99:
 2684 07a8 636F6E74 		.ascii	"context\000"
 2684      65787400 
 2685              	.LASF51:
 2686 07b0 705F6D73 		.ascii	"p_msg\000"
 2686      6700
 2687              	.LASF159:
 2688 07b6 64697374 		.ascii	"distance\000"
 2688      616E6365 
 2688      00
 2689              	.LASF78:
 2690 07bf 76745F70 		.ascii	"vt_par\000"
 2690      617200
 2691              	.LASF146:
 2692 07c6 63665F6F 		.ascii	"cf_off_ctx\000"
 2692      66665F63 
 2692      747800
 2693              	.LASF132:
 2694 07d1 63685F6D 		.ascii	"ch_mutex\000"
 2694      75746578 
 2694      00
 2695              	.LASF46:
 2696 07da 705F7265 		.ascii	"p_refs\000"
 2696      667300
 2697              	.LASF85:
 2698 07e1 6973725F 		.ascii	"isr_cnt\000"
 2698      636E7400 
 2699              	.LASF160:
 2700 07e9 77614469 		.ascii	"waDistance\000"
 2700      7374616E 
 2700      636500
 2701              	.LASF104:
 2702 07f4 73655F73 		.ascii	"se_state\000"
 2702      74617465 
 2702      00
 2703              	.LASF90:
 2704 07fd 726C6973 		.ascii	"rlist\000"
 2704      7400
 2705              	.LASF15:
 2706 0803 75696E74 		.ascii	"uint8_t\000"
 2706      385F7400 
 2707              	.LASF57:
 2708 080b 74687265 		.ascii	"thread_reference_t\000"
 2708      61645F72 
 2708      65666572 
 2708      656E6365 
 2708      5F7400
 2709              	.LASF124:
 2710 081e 77746F62 		.ascii	"wtobjp\000"
 2710      6A7000
 2711              	.LASF42:
 2712 0825 705F6E61 		.ascii	"p_name\000"
 2712      6D6500
 2713              	.LASF165:
 2714 082c 64697374 		.ascii	"distance.c\000"
ARM GAS  C:\Users\noeta\AppData\Local\Temp\ccdNbph8.s 			page 55


 2714      616E6365 
 2714      2E6300
 2715              	.LASF81:
 2716 0837 76745F73 		.ascii	"vt_systime\000"
 2716      79737469 
 2716      6D6500
 2717              	.LASF87:
 2718 0842 74726163 		.ascii	"trace_buffer\000"
 2718      655F6275 
 2718      66666572 
 2718      00
 2719              	.LASF141:
 2720 084f 63685F76 		.ascii	"ch_version\000"
 2720      65727369 
 2720      6F6E00
 2721              	.LASF171:
 2722 085a 63685265 		.ascii	"chRegSetThreadName\000"
 2722      67536574 
 2722      54687265 
 2722      61644E61 
 2722      6D6500
 2723              	.LASF119:
 2724 086d 6D5F6372 		.ascii	"m_crit_thd\000"
 2724      69745F74 
 2724      686400
 2725              	.LASF134:
 2726 0878 6D5F6F77 		.ascii	"m_owner\000"
 2726      6E657200 
 2727              	.LASF103:
 2728 0880 73655F77 		.ascii	"se_wtobjp\000"
 2728      746F626A 
 2728      7000
 2729              	.LASF138:
 2730 088a 63685F69 		.ascii	"ch_identifier\000"
 2730      64656E74 
 2730      69666965 
 2730      7200
 2731              	.LASF77:
 2732 0898 76745F66 		.ascii	"vt_func\000"
 2732      756E6300 
 2733              		.ident	"GCC: (GNU Tools for Arm Embedded Processors 7-2017-q4-major) 7.2.1 20170904 (release) [ARM
ARM GAS  C:\Users\noeta\AppData\Local\Temp\ccdNbph8.s 			page 56


DEFINED SYMBOLS
                            *ABS*:00000000 distance.c
C:\Users\noeta\AppData\Local\Temp\ccdNbph8.s:18     .text.Distance:00000000 $t
C:\Users\noeta\AppData\Local\Temp\ccdNbph8.s:25     .text.Distance:00000000 Distance
C:\Users\noeta\AppData\Local\Temp\ccdNbph8.s:82     .text.Distance:00000024 $d
C:\Users\noeta\AppData\Local\Temp\ccdNbph8.s:91     .text.distance_start:00000000 $t
C:\Users\noeta\AppData\Local\Temp\ccdNbph8.s:99     .text.distance_start:00000000 distance_start
C:\Users\noeta\AppData\Local\Temp\ccdNbph8.s:146    .text.distance_start:0000002c $d
C:\Users\noeta\AppData\Local\Temp\ccdNbph8.s:153    .text.get_distance:00000000 $t
C:\Users\noeta\AppData\Local\Temp\ccdNbph8.s:161    .text.get_distance:00000000 get_distance
C:\Users\noeta\AppData\Local\Temp\ccdNbph8.s:199    .text.get_distance:00000024 $d
C:\Users\noeta\AppData\Local\Temp\ccdNbph8.s:205    .bss.waDistance:00000000 $d
C:\Users\noeta\AppData\Local\Temp\ccdNbph8.s:209    .bss.waDistance:00000000 waDistance
C:\Users\noeta\AppData\Local\Temp\ccdNbph8.s:212    .data.distance:00000000 $d
C:\Users\noeta\AppData\Local\Temp\ccdNbph8.s:216    .data.distance:00000000 distance
C:\Users\noeta\AppData\Local\Temp\ccdNbph8.s:219    .rodata.__FUNCTION__.7855:00000000 $d
C:\Users\noeta\AppData\Local\Temp\ccdNbph8.s:223    .rodata.__FUNCTION__.7855:00000000 __FUNCTION__.7855

UNDEFINED SYMBOLS
VL53L0X_get_dist_mm
chThdSleep
ch
__stack_chk_guard
chThdCreateStatic
__stack_chk_fail
