ARM GAS  C:\Users\noeta\AppData\Local\Temp\ccr3XRxY.s 			page 1


   1              		.cpu cortex-m4
   2              		.eabi_attribute 27, 1
   3              		.eabi_attribute 28, 1
   4              		.eabi_attribute 20, 1
   5              		.eabi_attribute 21, 1
   6              		.eabi_attribute 23, 3
   7              		.eabi_attribute 24, 1
   8              		.eabi_attribute 25, 1
   9              		.eabi_attribute 26, 1
  10              		.eabi_attribute 30, 2
  11              		.eabi_attribute 34, 1
  12              		.eabi_attribute 18, 4
  13              		.file	"moteur.c"
  14              		.text
  15              	.Ltext0:
  16              		.cfi_sections	.debug_frame
  17              		.section	.text.go_foreward,"ax",%progbits
  18              		.align	1
  19              		.p2align 4,,15
  20              		.global	go_foreward
  21              		.syntax unified
  22              		.thumb
  23              		.thumb_func
  24              		.fpu fpv4-sp-d16
  25              		.type	go_foreward, %function
  26              	go_foreward:
  27              	.LFB256:
  28              		.file 1 "moteur.c"
  29              		.loc 1 13 0
  30              		.cfi_startproc
  31              		@ args = 0, pretend = 0, frame = 8
  32              		@ frame_needed = 0, uses_anonymous_args = 0
  33 0000 10B5     		push	{r4, lr}
  34              		.cfi_def_cfa_offset 8
  35              		.cfi_offset 4, -8
  36              		.cfi_offset 14, -4
  37 0002 0A4C     		ldr	r4, .L7
  38 0004 82B0     		sub	sp, sp, #8
  39              		.cfi_def_cfa_offset 16
  40              		.loc 1 13 0
  41 0006 2368     		ldr	r3, [r4]
  42 0008 0193     		str	r3, [sp, #4]
  43              		.loc 1 14 0
  44 000a 4FF4AF70 		mov	r0, #350
  45 000e FFF7FEFF 		bl	left_motor_set_speed
  46              	.LVL0:
  47              		.loc 1 15 0
  48 0012 019A     		ldr	r2, [sp, #4]
  49 0014 2368     		ldr	r3, [r4]
  50 0016 9A42     		cmp	r2, r3
  51 0018 06D1     		bne	.L6
  52 001a 4FF4AF70 		mov	r0, #350
  53              		.loc 1 16 0
  54 001e 02B0     		add	sp, sp, #8
  55              		.cfi_remember_state
  56              		.cfi_def_cfa_offset 8
  57              		@ sp needed
ARM GAS  C:\Users\noeta\AppData\Local\Temp\ccr3XRxY.s 			page 2


  58 0020 BDE81040 		pop	{r4, lr}
  59              		.cfi_restore 14
  60              		.cfi_restore 4
  61              		.cfi_def_cfa_offset 0
  62              		.loc 1 15 0
  63 0024 FFF7FEBF 		b	right_motor_set_speed
  64              	.LVL1:
  65              	.L6:
  66              		.cfi_restore_state
  67 0028 FFF7FEFF 		bl	__stack_chk_fail
  68              	.LVL2:
  69              	.L8:
  70              		.align	2
  71              	.L7:
  72 002c 00000000 		.word	__stack_chk_guard
  73              		.cfi_endproc
  74              	.LFE256:
  75              		.size	go_foreward, .-go_foreward
  76              		.section	.text.stop,"ax",%progbits
  77              		.align	1
  78              		.p2align 4,,15
  79              		.global	stop
  80              		.syntax unified
  81              		.thumb
  82              		.thumb_func
  83              		.fpu fpv4-sp-d16
  84              		.type	stop, %function
  85              	stop:
  86              	.LFB257:
  87              		.loc 1 18 0
  88              		.cfi_startproc
  89              		@ args = 0, pretend = 0, frame = 8
  90              		@ frame_needed = 0, uses_anonymous_args = 0
  91 0000 10B5     		push	{r4, lr}
  92              		.cfi_def_cfa_offset 8
  93              		.cfi_offset 4, -8
  94              		.cfi_offset 14, -4
  95 0002 094C     		ldr	r4, .L14
  96 0004 82B0     		sub	sp, sp, #8
  97              		.cfi_def_cfa_offset 16
  98              		.loc 1 18 0
  99 0006 2368     		ldr	r3, [r4]
 100 0008 0193     		str	r3, [sp, #4]
 101              		.loc 1 19 0
 102 000a 0020     		movs	r0, #0
 103 000c FFF7FEFF 		bl	left_motor_set_speed
 104              	.LVL3:
 105              		.loc 1 20 0
 106 0010 019A     		ldr	r2, [sp, #4]
 107 0012 2368     		ldr	r3, [r4]
 108 0014 9A42     		cmp	r2, r3
 109 0016 05D1     		bne	.L13
 110 0018 0020     		movs	r0, #0
 111              		.loc 1 21 0
 112 001a 02B0     		add	sp, sp, #8
 113              		.cfi_remember_state
 114              		.cfi_def_cfa_offset 8
ARM GAS  C:\Users\noeta\AppData\Local\Temp\ccr3XRxY.s 			page 3


 115              		@ sp needed
 116 001c BDE81040 		pop	{r4, lr}
 117              		.cfi_restore 14
 118              		.cfi_restore 4
 119              		.cfi_def_cfa_offset 0
 120              		.loc 1 20 0
 121 0020 FFF7FEBF 		b	right_motor_set_speed
 122              	.LVL4:
 123              	.L13:
 124              		.cfi_restore_state
 125 0024 FFF7FEFF 		bl	__stack_chk_fail
 126              	.LVL5:
 127              	.L15:
 128              		.align	2
 129              	.L14:
 130 0028 00000000 		.word	__stack_chk_guard
 131              		.cfi_endproc
 132              	.LFE257:
 133              		.size	stop, .-stop
 134              		.section	.text.turn,"ax",%progbits
 135              		.align	1
 136              		.p2align 4,,15
 137              		.global	turn
 138              		.syntax unified
 139              		.thumb
 140              		.thumb_func
 141              		.fpu fpv4-sp-d16
 142              		.type	turn, %function
 143              	turn:
 144              	.LFB258:
 145              		.loc 1 23 0
 146              		.cfi_startproc
 147              		@ args = 0, pretend = 0, frame = 8
 148              		@ frame_needed = 0, uses_anonymous_args = 0
 149              	.LVL6:
 150 0000 10B5     		push	{r4, lr}
 151              		.cfi_def_cfa_offset 8
 152              		.cfi_offset 4, -8
 153              		.cfi_offset 14, -4
 154 0002 184C     		ldr	r4, .L29
 155 0004 82B0     		sub	sp, sp, #8
 156              		.cfi_def_cfa_offset 16
 157              		.loc 1 23 0
 158 0006 2368     		ldr	r3, [r4]
 159 0008 0193     		str	r3, [sp, #4]
 160              		.loc 1 24 0
 161 000a 0128     		cmp	r0, #1
 162 000c 1AD0     		beq	.L27
 163              		.loc 1 27 0
 164 000e 68B1     		cbz	r0, .L28
 165              	.LBB6:
 166              	.LBB7:
 167              		.loc 1 19 0
 168 0010 0020     		movs	r0, #0
 169              	.LVL7:
 170 0012 FFF7FEFF 		bl	left_motor_set_speed
 171              	.LVL8:
ARM GAS  C:\Users\noeta\AppData\Local\Temp\ccr3XRxY.s 			page 4


 172              		.loc 1 20 0
 173 0016 019A     		ldr	r2, [sp, #4]
 174 0018 2368     		ldr	r3, [r4]
 175 001a 9A42     		cmp	r2, r3
 176 001c 08BF     		it	eq
 177 001e 0020     		moveq	r0, #0
 178 0020 0ED1     		bne	.L25
 179              	.L24:
 180              	.LBE7:
 181              	.LBE6:
 182              		.loc 1 33 0
 183 0022 02B0     		add	sp, sp, #8
 184              		.cfi_remember_state
 185              		.cfi_def_cfa_offset 8
 186              		@ sp needed
 187 0024 BDE81040 		pop	{r4, lr}
 188              		.cfi_restore 14
 189              		.cfi_restore 4
 190              		.cfi_def_cfa_offset 0
 191              	.LBB11:
 192              	.LBB8:
 193              		.loc 1 20 0
 194 0028 FFF7FEBF 		b	right_motor_set_speed
 195              	.LVL9:
 196              	.L28:
 197              		.cfi_restore_state
 198              	.LBE8:
 199              	.LBE11:
 200              	.LBB12:
 201              		.loc 1 28 0
 202 002c AF20     		movs	r0, #175
 203              	.LVL10:
 204 002e FFF7FEFF 		bl	left_motor_set_speed
 205              	.LVL11:
 206              		.loc 1 29 0
 207 0032 019A     		ldr	r2, [sp, #4]
 208 0034 2368     		ldr	r3, [r4]
 209 0036 9A42     		cmp	r2, r3
 210 0038 08BF     		it	eq
 211 003a 6FF0AE00 		mvneq	r0, #174
 212 003e F0D0     		beq	.L24
 213              	.L25:
 214              	.LBE12:
 215              	.LBB13:
 216              	.LBB9:
 217              		.loc 1 20 0
 218 0040 FFF7FEFF 		bl	__stack_chk_fail
 219              	.LVL12:
 220              	.L27:
 221              	.LBE9:
 222              	.LBE13:
 223              	.LBB14:
 224              		.loc 1 25 0
 225 0044 6FF0AE00 		mvn	r0, #174
 226              	.LVL13:
 227 0048 FFF7FEFF 		bl	left_motor_set_speed
 228              	.LVL14:
ARM GAS  C:\Users\noeta\AppData\Local\Temp\ccr3XRxY.s 			page 5


 229              		.loc 1 26 0
 230 004c 019A     		ldr	r2, [sp, #4]
 231 004e 2368     		ldr	r3, [r4]
 232 0050 9A42     		cmp	r2, r3
 233 0052 08BF     		it	eq
 234 0054 AF20     		moveq	r0, #175
 235 0056 F3D1     		bne	.L25
 236              	.LBE14:
 237              		.loc 1 33 0
 238 0058 02B0     		add	sp, sp, #8
 239              		.cfi_def_cfa_offset 8
 240              		@ sp needed
 241 005a BDE81040 		pop	{r4, lr}
 242              		.cfi_restore 14
 243              		.cfi_restore 4
 244              		.cfi_def_cfa_offset 0
 245              	.LBB15:
 246              	.LBB10:
 247              		.loc 1 20 0
 248 005e FFF7FEBF 		b	right_motor_set_speed
 249              	.LVL15:
 250              	.L30:
 251 0062 00BF     		.align	2
 252              	.L29:
 253 0064 00000000 		.word	__stack_chk_guard
 254              	.LBE10:
 255              	.LBE15:
 256              		.cfi_endproc
 257              	.LFE258:
 258              		.size	turn, .-turn
 259              		.text
 260              	.Letext0:
 261              		.file 2 "c:\\users\\noeta\\downloads\\eclipse_e-puck2\\tools\\gcc-arm-none-eabi-7-2017-q4-major-wi
 262              		.file 3 "c:\\users\\noeta\\downloads\\eclipse_e-puck2\\tools\\gcc-arm-none-eabi-7-2017-q4-major-wi
 263              		.file 4 "c:\\users\\noeta\\downloads\\eclipse_e-puck2\\tools\\gcc-arm-none-eabi-7-2017-q4-major-wi
 264              		.file 5 "../lib/e-puck2_main-processor/ChibiOS//os/rt/ports/ARMCMx/compilers/GCC/chtypes.h"
 265              		.file 6 "../lib/e-puck2_main-processor/ChibiOS//os/rt/include/chsystypes.h"
 266              		.file 7 "../lib/e-puck2_main-processor/ChibiOS//os/rt/include/chschd.h"
 267              		.file 8 "../lib/e-puck2_main-processor/ChibiOS//os/ext/CMSIS/include/core_cm4.h"
 268              		.file 9 "../lib/e-puck2_main-processor/ChibiOS//os/ext/CMSIS/ST/system_stm32f4xx.h"
 269              		.file 10 "../lib/e-puck2_main-processor/ChibiOS//os/ext/CMSIS/ST/stm32f407xx.h"
 270              		.file 11 "../lib/e-puck2_main-processor/ChibiOS//os/rt/ports/ARMCMx/chcore.h"
 271              		.file 12 "../lib/e-puck2_main-processor/ChibiOS//os/rt/ports/ARMCMx/chcore_v7m.h"
 272              		.file 13 "../lib/e-puck2_main-processor/ChibiOS//os/rt/include/chdebug.h"
 273              		.file 14 "../lib/e-puck2_main-processor/ChibiOS//os/rt/include/chtm.h"
 274              		.file 15 "../lib/e-puck2_main-processor/ChibiOS//os/rt/include/chstats.h"
 275              		.file 16 "../lib/e-puck2_main-processor/ChibiOS//os/rt/include/chsem.h"
 276              		.file 17 "../lib/e-puck2_main-processor/ChibiOS//os/rt/include/chmtx.h"
 277              		.file 18 "../lib/e-puck2_main-processor/ChibiOS//os/rt/include/chregistry.h"
 278              		.file 19 "../lib/e-puck2_main-processor/ChibiOS//os/rt/include/chevents.h"
 279              		.file 20 "../lib/e-puck2_main-processor/ChibiOS//os/rt/include/chqueues.h"
 280              		.file 21 "../lib/e-puck2_main-processor/ChibiOS//os/hal/ports/STM32/STM32F4xx/stm32_dma.h"
 281              		.file 22 "../lib/e-puck2_main-processor/ChibiOS//os/hal/include/hal_ioblock.h"
 282              		.file 23 "../lib/e-puck2_main-processor/ChibiOS//os/hal/ports/STM32/LLD/GPIOv2/pal_lld.h"
 283              		.file 24 "../lib/e-puck2_main-processor/ChibiOS//os/hal/include/adc.h"
 284              		.file 25 "../lib/e-puck2_main-processor/ChibiOS//os/hal/ports/STM32/STM32F4xx/adc_lld.h"
 285              		.file 26 "../lib/e-puck2_main-processor/ChibiOS//os/hal/include/can.h"
ARM GAS  C:\Users\noeta\AppData\Local\Temp\ccr3XRxY.s 			page 6


 286              		.file 27 "../lib/e-puck2_main-processor/ChibiOS//os/hal/ports/STM32/LLD/can_lld.h"
 287              		.file 28 "../lib/e-puck2_main-processor/ChibiOS//os/hal/include/dac.h"
 288              		.file 29 "../lib/e-puck2_main-processor/ChibiOS//os/hal/ports/STM32/LLD/DACv1/dac_lld.h"
 289              		.file 30 "../lib/e-puck2_main-processor/ChibiOS//os/hal/include/ext.h"
 290              		.file 31 "../lib/e-puck2_main-processor/ChibiOS//os/hal/ports/STM32/LLD/ext_lld.h"
 291              		.file 32 "../lib/e-puck2_main-processor/ChibiOS//os/hal/include/gpt.h"
 292              		.file 33 "../lib/e-puck2_main-processor/ChibiOS//os/hal/ports/STM32/LLD/TIMv1/gpt_lld.h"
 293              		.file 34 "../lib/e-puck2_main-processor/ChibiOS//os/hal/ports/STM32/LLD/TIMv1/stm32_tim.h"
 294              		.file 35 "../lib/e-puck2_main-processor/ChibiOS//os/hal/include/i2c.h"
 295              		.file 36 "../lib/e-puck2_main-processor/ChibiOS//os/hal/ports/STM32/LLD/I2Cv1/i2c_lld.h"
 296              		.file 37 "../lib/e-puck2_main-processor/ChibiOS//os/hal/include/i2s.h"
 297              		.file 38 "../lib/e-puck2_main-processor/ChibiOS//os/hal/ports/STM32/LLD/SPIv1/i2s_lld.h"
 298              		.file 39 "../lib/e-puck2_main-processor/ChibiOS//os/hal/include/pwm.h"
 299              		.file 40 "../lib/e-puck2_main-processor/ChibiOS//os/hal/ports/STM32/LLD/TIMv1/pwm_lld.h"
 300              		.file 41 "../lib/e-puck2_main-processor/ChibiOS//os/hal/include/serial.h"
 301              		.file 42 "../lib/e-puck2_main-processor/ChibiOS//os/hal/ports/STM32/LLD/USARTv1/serial_lld.h"
 302              		.file 43 "../lib/e-puck2_main-processor/ChibiOS//os/hal/include/sdc.h"
 303              		.file 44 "../lib/e-puck2_main-processor/ChibiOS//os/hal/ports/STM32/LLD/sdc_lld.h"
 304              		.file 45 "../lib/e-puck2_main-processor/ChibiOS//os/hal/include/spi.h"
 305              		.file 46 "../lib/e-puck2_main-processor/ChibiOS//os/hal/ports/STM32/LLD/SPIv1/spi_lld.h"
 306              		.file 47 "../lib/e-puck2_main-processor/ChibiOS//os/hal/include/usb.h"
 307              		.file 48 "../lib/e-puck2_main-processor/ChibiOS//os/hal/ports/STM32/LLD/OTGv1/usb_lld.h"
 308              		.file 49 "../lib/e-puck2_main-processor/ChibiOS//os/hal/ports/STM32/LLD/OTGv1/stm32_otg.h"