ARM GAS  C:\Users\noeta\AppData\Local\Temp\ccec6KNw.s 			page 1


   1              		.cpu cortex-m4
   2              		.eabi_attribute 27, 1
   3              		.eabi_attribute 28, 1
   4              		.eabi_attribute 20, 1
   5              		.eabi_attribute 21, 1
   6              		.eabi_attribute 23, 3
   7              		.eabi_attribute 24, 1
   8              		.eabi_attribute 25, 1
   9              		.eabi_attribute 26, 1
  10              		.eabi_attribute 30, 2
  11              		.eabi_attribute 34, 1
  12              		.eabi_attribute 18, 4
  13              		.file	"process_image.c"
  14              		.text
  15              	.Ltext0:
  16              		.cfi_sections	.debug_frame
  17              		.section	.text.ProcessImage,"ax",%progbits
  18              		.align	1
  19              		.p2align 4,,15
  20              		.syntax unified
  21              		.thumb
  22              		.thumb_func
  23              		.fpu fpv4-sp-d16
  24              		.type	ProcessImage, %function
  25              	ProcessImage:
  26              	.LFB257:
  27              		.file 1 "process_image.c"
  28              		.loc 1 48 0
  29              		.cfi_startproc
  30              		@ args = 0, pretend = 0, frame = 904
  31              		@ frame_needed = 0, uses_anonymous_args = 0
  32              	.LVL0:
  33 0000 2DE9F04F 		push	{r4, r5, r6, r7, r8, r9, r10, fp, lr}
  34              		.cfi_def_cfa_offset 36
  35              		.cfi_offset 4, -36
  36              		.cfi_offset 5, -32
  37              		.cfi_offset 6, -28
  38              		.cfi_offset 7, -24
  39              		.cfi_offset 8, -20
  40              		.cfi_offset 9, -16
  41              		.cfi_offset 10, -12
  42              		.cfi_offset 11, -8
  43              		.cfi_offset 14, -4
  44              	.LBB37:
  45              	.LBB38:
  46              		.file 2 "../lib/e-puck2_main-processor/ChibiOS//os/rt/include/chregistry.h"
  47              		.loc 2 135 0
  48 0004 594A     		ldr	r2, .L14
  49 0006 5A49     		ldr	r1, .L14+4
  50 0008 9269     		ldr	r2, [r2, #24]
  51              	.LBE38:
  52              	.LBE37:
  53              		.loc 1 48 0
  54 000a 5A4B     		ldr	r3, .L14+8
  55              	.LBB40:
  56              	.LBB39:
  57              		.loc 2 135 0
ARM GAS  C:\Users\noeta\AppData\Local\Temp\ccec6KNw.s 			page 2


  58 000c 9161     		str	r1, [r2, #24]
  59              	.LBE39:
  60              	.LBE40:
  61              		.loc 1 48 0
  62 000e ADF5637D 		sub	sp, sp, #908
  63              		.cfi_def_cfa_offset 944
  64              		.loc 1 54 0
  65 0012 4FF49672 		mov	r2, #300
  66              		.loc 1 48 0
  67 0016 1B68     		ldr	r3, [r3]
  68 0018 E193     		str	r3, [sp, #900]
  69              		.loc 1 55 0
  70 001a 0DEB0208 		add	r8, sp, r2
  71              		.loc 1 54 0
  72 001e 0021     		movs	r1, #0
  73 0020 6846     		mov	r0, sp
  74              	.LVL1:
  75 0022 FFF7FEFF 		bl	memset
  76              	.LVL2:
  77              		.loc 1 56 0
  78 0026 96AE     		add	r6, sp, #600
  79              		.loc 1 55 0
  80 0028 4FF49672 		mov	r2, #300
  81 002c 0021     		movs	r1, #0
  82 002e 4046     		mov	r0, r8
  83 0030 FFF7FEFF 		bl	memset
  84              	.LVL3:
  85              		.loc 1 56 0
  86 0034 3046     		mov	r0, r6
  87 0036 4FF49672 		mov	r2, #300
  88 003a 0021     		movs	r1, #0
  89 003c FFF7FEFF 		bl	memset
  90              	.LVL4:
  91              	.LBB41:
  92              	.LBB42:
  93              	.LBB43:
  94              		.file 3 "../lib/e-puck2_main-processor/ChibiOS//os/rt/include/chbsem.h"
  95              		.loc 3 143 0
  96 0040 4D4F     		ldr	r7, .L14+12
  97              	.LBE43:
  98              	.LBE42:
  99              		.loc 1 105 0
 100 0042 DFF83CA1 		ldr	r10, .L14+20
 101 0046 0DF22B19 		addw	r9, sp, #299
 102              	.L2:
 103              	.LVL5:
 104              	.LBB45:
 105              	.LBB44:
 106              		.loc 3 143 0
 107 004a 3846     		mov	r0, r7
 108 004c FFF7FEFF 		bl	chSemWait
 109              	.LVL6:
 110              	.LBE44:
 111              	.LBE45:
 112              		.loc 1 62 0
 113 0050 FFF7FEFF 		bl	dcmi_get_last_image_ptr
 114              	.LVL7:
ARM GAS  C:\Users\noeta\AppData\Local\Temp\ccec6KNw.s 			page 3


 115 0054 0024     		movs	r4, #0
 116              	.LVL8:
 117              	.L3:
 118              	.LBB46:
 119              		.loc 1 68 0 discriminator 3
 120 0056 0219     		adds	r2, r0, r4
 121              		.loc 1 67 0 discriminator 3
 122 0058 035D     		ldrb	r3, [r0, r4]	@ zero_extendqisi2
 123              		.loc 1 68 0 discriminator 3
 124 005a 92F801C0 		ldrb	ip, [r2, #1]	@ zero_extendqisi2
 125 005e DA00     		lsls	r2, r3, #3
 126              		.loc 1 67 0 discriminator 3
 127 0060 C4F34E01 		ubfx	r1, r4, #1, #15
 128              		.loc 1 69 0 discriminator 3
 129 0064 0CF01F05 		and	r5, ip, #31
 130              		.loc 1 68 0 discriminator 3
 131 0068 02F03802 		and	r2, r2, #56
 132              		.loc 1 67 0 discriminator 3
 133 006c 9B10     		asrs	r3, r3, #2
 134 006e 0234     		adds	r4, r4, #2
 135              	.LVL9:
 136              		.loc 1 69 0 discriminator 3
 137 0070 6D00     		lsls	r5, r5, #1
 138              		.loc 1 68 0 discriminator 3
 139 0072 02EB5C12 		add	r2, r2, ip, lsr #5
 140              		.loc 1 67 0 discriminator 3
 141 0076 03F03E03 		and	r3, r3, #62
 142              		.loc 1 66 0 discriminator 3
 143 007a B4F5167F 		cmp	r4, #600
 144              		.loc 1 69 0 discriminator 3
 145 007e 7554     		strb	r5, [r6, r1]
 146              		.loc 1 68 0 discriminator 3
 147 0080 08F80120 		strb	r2, [r8, r1]
 148              		.loc 1 67 0 discriminator 3
 149 0084 0DF80130 		strb	r3, [sp, r1]
 150              		.loc 1 66 0 discriminator 3
 151 0088 E5D1     		bne	.L3
 152              	.LBE46:
 153              		.loc 1 74 0
 154 008a 0022     		movs	r2, #0
 155              		.loc 1 73 0
 156 008c 1146     		mov	r1, r2
 157              		.loc 1 72 0
 158 008e 1046     		mov	r0, r2
 159              	.LVL10:
 160 0090 0DF1FF33 		add	r3, sp, #-1
 161 0094 4D46     		mov	r5, r9
 162 0096 0DF25724 		addw	r4, sp, #599
 163              	.L4:
 164              	.LVL11:
 165              	.LBB47:
 166              		.loc 1 76 0 discriminator 3
 167 009a 13F801BF 		ldrb	fp, [r3, #1]!	@ zero_extendqisi2
 168              	.LVL12:
 169              		.loc 1 77 0 discriminator 3
 170 009e 15F801EF 		ldrb	lr, [r5, #1]!	@ zero_extendqisi2
 171              		.loc 1 78 0 discriminator 3
ARM GAS  C:\Users\noeta\AppData\Local\Temp\ccec6KNw.s 			page 4


 172 00a2 14F801CF 		ldrb	ip, [r4, #1]!	@ zero_extendqisi2
 173              		.loc 1 75 0 discriminator 3
 174 00a6 9945     		cmp	r9, r3
 175              		.loc 1 76 0 discriminator 3
 176 00a8 5844     		add	r0, r0, fp
 177              	.LVL13:
 178              		.loc 1 77 0 discriminator 3
 179 00aa 7144     		add	r1, r1, lr
 180              	.LVL14:
 181              		.loc 1 78 0 discriminator 3
 182 00ac 6244     		add	r2, r2, ip
 183              	.LVL15:
 184              		.loc 1 75 0 discriminator 3
 185 00ae F4D1     		bne	.L4
 186              	.LBE47:
 187              		.loc 1 82 0
 188 00b0 00F5FA63 		add	r3, r0, #2000
 189              	.LVL16:
 190 00b4 8B42     		cmp	r3, r1
 191 00b6 02F5FA64 		add	r4, r2, #2000
 192 00ba 13D2     		bcs	.L5
 193              		.loc 1 82 0 is_stmt 0 discriminator 1
 194 00bc A142     		cmp	r1, r4
 195 00be 11D9     		bls	.L5
 196              		.loc 1 83 0 is_stmt 1
 197 00c0 2E4C     		ldr	r4, .L14+16
 198 00c2 0123     		movs	r3, #1
 199 00c4 2370     		strb	r3, [r4]
 200              		.loc 1 84 0
 201 00c6 2020     		movs	r0, #32
 202              	.LVL17:
 203              		.loc 1 85 0
 204 00c8 4021     		movs	r1, #64
 205              	.LVL18:
 206              		.loc 1 86 0
 207 00ca 4FF48062 		mov	r2, #1024
 208              	.LVL19:
 209              		.loc 1 87 0
 210 00ce 4FF40063 		mov	r3, #2048
 211              		.loc 1 84 0
 212 00d2 AAF81A00 		strh	r0, [r10, #26]	@ movhi
 213              		.loc 1 85 0
 214 00d6 AAF81810 		strh	r1, [r10, #24]	@ movhi
 215              		.loc 1 86 0
 216 00da AAF81820 		strh	r2, [r10, #24]	@ movhi
 217              		.loc 1 87 0
 218 00de AAF81830 		strh	r3, [r10, #24]	@ movhi
 219 00e2 B2E7     		b	.L2
 220              	.LVL20:
 221              	.L5:
 222              		.loc 1 89 0
 223 00e4 A042     		cmp	r0, r4
 224 00e6 15D9     		bls	.L7
 225              		.loc 1 89 0 is_stmt 0 discriminator 1
 226 00e8 01F5FA64 		add	r4, r1, #2000
 227 00ec 8442     		cmp	r4, r0
 228 00ee 11D2     		bcs	.L7
ARM GAS  C:\Users\noeta\AppData\Local\Temp\ccec6KNw.s 			page 5


 229              		.loc 1 90 0 is_stmt 1
 230 00f0 224C     		ldr	r4, .L14+16
 231 00f2 0223     		movs	r3, #2
 232 00f4 2370     		strb	r3, [r4]
 233              		.loc 1 91 0
 234 00f6 2020     		movs	r0, #32
 235              	.LVL21:
 236              		.loc 1 92 0
 237 00f8 4021     		movs	r1, #64
 238              	.LVL22:
 239              		.loc 1 93 0
 240 00fa 4FF48062 		mov	r2, #1024
 241              	.LVL23:
 242              		.loc 1 94 0
 243 00fe 4FF40063 		mov	r3, #2048
 244              		.loc 1 91 0
 245 0102 AAF81800 		strh	r0, [r10, #24]	@ movhi
 246              		.loc 1 92 0
 247 0106 AAF81A10 		strh	r1, [r10, #26]	@ movhi
 248              		.loc 1 93 0
 249 010a AAF81820 		strh	r2, [r10, #24]	@ movhi
 250              		.loc 1 94 0
 251 010e AAF81830 		strh	r3, [r10, #24]	@ movhi
 252 0112 9AE7     		b	.L2
 253              	.LVL24:
 254              	.L7:
 255              		.loc 1 96 0
 256 0114 9342     		cmp	r3, r2
 257 0116 15D2     		bcs	.L8
 258              		.loc 1 96 0 is_stmt 0 discriminator 1
 259 0118 01F5FA61 		add	r1, r1, #2000
 260              	.LVL25:
 261 011c 9142     		cmp	r1, r2
 262 011e 11D2     		bcs	.L8
 263              		.loc 1 97 0 is_stmt 1
 264 0120 164C     		ldr	r4, .L14+16
 265 0122 0323     		movs	r3, #3
 266 0124 2370     		strb	r3, [r4]
 267              		.loc 1 98 0
 268 0126 2020     		movs	r0, #32
 269              	.LVL26:
 270              		.loc 1 99 0
 271 0128 4021     		movs	r1, #64
 272              	.LVL27:
 273              		.loc 1 100 0
 274 012a 4FF48062 		mov	r2, #1024
 275              	.LVL28:
 276              		.loc 1 101 0
 277 012e 4FF40063 		mov	r3, #2048
 278              		.loc 1 98 0
 279 0132 AAF81800 		strh	r0, [r10, #24]	@ movhi
 280              		.loc 1 99 0
 281 0136 AAF81810 		strh	r1, [r10, #24]	@ movhi
 282              		.loc 1 100 0
 283 013a AAF81A20 		strh	r2, [r10, #26]	@ movhi
 284              		.loc 1 101 0
 285 013e AAF81830 		strh	r3, [r10, #24]	@ movhi
ARM GAS  C:\Users\noeta\AppData\Local\Temp\ccec6KNw.s 			page 6


 286 0142 82E7     		b	.L2
 287              	.LVL29:
 288              	.L8:
 289              		.loc 1 104 0
 290 0144 0D4C     		ldr	r4, .L14+16
 291              		.loc 1 105 0
 292 0146 2020     		movs	r0, #32
 293              	.LVL30:
 294              		.loc 1 106 0
 295 0148 4021     		movs	r1, #64
 296              		.loc 1 107 0
 297 014a 4FF48062 		mov	r2, #1024
 298              	.LVL31:
 299              		.loc 1 108 0
 300 014e 4FF40063 		mov	r3, #2048
 301              	.LVL32:
 302              		.loc 1 104 0
 303 0152 4FF00005 		mov	r5, #0
 304 0156 2570     		strb	r5, [r4]
 305              		.loc 1 105 0
 306 0158 AAF81800 		strh	r0, [r10, #24]	@ movhi
 307              		.loc 1 106 0
 308 015c AAF81810 		strh	r1, [r10, #24]	@ movhi
 309              		.loc 1 107 0
 310 0160 AAF81820 		strh	r2, [r10, #24]	@ movhi
 311              		.loc 1 108 0
 312 0164 AAF81A30 		strh	r3, [r10, #26]	@ movhi
 313 0168 6FE7     		b	.L2
 314              	.L15:
 315 016a 00BF     		.align	2
 316              	.L14:
 317 016c 00000000 		.word	ch
 318 0170 00000000 		.word	.LANCHOR0
 319 0174 00000000 		.word	__stack_chk_guard
 320 0178 00000000 		.word	.LANCHOR1
 321 017c 00000000 		.word	.LANCHOR2
 322 0180 000C0240 		.word	1073875968
 323              	.LBE41:
 324              		.cfi_endproc
 325              	.LFE257:
 326              		.size	ProcessImage, .-ProcessImage
 327              		.section	.text.CaptureImage,"ax",%progbits
 328              		.align	1
 329              		.p2align 4,,15
 330              		.syntax unified
 331              		.thumb
 332              		.thumb_func
 333              		.fpu fpv4-sp-d16
 334              		.type	CaptureImage, %function
 335              	CaptureImage:
 336              	.LFB256:
 337              		.loc 1 22 0
 338              		.cfi_startproc
 339              		@ Volatile: function does not return.
 340              		@ args = 0, pretend = 0, frame = 8
 341              		@ frame_needed = 0, uses_anonymous_args = 0
 342              	.LVL33:
ARM GAS  C:\Users\noeta\AppData\Local\Temp\ccec6KNw.s 			page 7


 343 0000 80B5     		push	{r7, lr}
 344              		.cfi_def_cfa_offset 8
 345              		.cfi_offset 7, -8
 346              		.cfi_offset 14, -4
 347              	.LBB64:
 348              	.LBB65:
 349              		.loc 2 135 0
 350 0002 274C     		ldr	r4, .L22
 351              	.LBE65:
 352              	.LBE64:
 353              		.loc 1 22 0
 354 0004 2749     		ldr	r1, .L22+4
 355              	.LBB67:
 356              	.LBB66:
 357              		.loc 2 135 0
 358 0006 A369     		ldr	r3, [r4, #24]
 359 0008 274A     		ldr	r2, .L22+8
 360 000a 9A61     		str	r2, [r3, #24]
 361              	.LBE66:
 362              	.LBE67:
 363              		.loc 1 22 0
 364 000c 86B0     		sub	sp, sp, #24
 365              		.cfi_def_cfa_offset 32
 366              		.loc 1 29 0
 367 000e 8023     		movs	r3, #128
 368 0010 F022     		movs	r2, #240
 369              		.loc 1 22 0
 370 0012 0D68     		ldr	r5, [r1]
 371              		.loc 1 29 0
 372 0014 0092     		str	r2, [sp]
 373 0016 4FF49B71 		mov	r1, #310
 374 001a 0022     		movs	r2, #0
 375 001c CDE90133 		strd	r3, r3, [sp, #4]
 376 0020 3020     		movs	r0, #48
 377              	.LVL34:
 378 0022 1423     		movs	r3, #20
 379              		.loc 1 22 0
 380 0024 0595     		str	r5, [sp, #20]
 381              		.loc 1 29 0
 382 0026 FFF7FEFF 		bl	po8030_advanced_config
 383              	.LVL35:
 384              		.loc 1 30 0
 385 002a 0020     		movs	r0, #0
 386 002c FFF7FEFF 		bl	po8030_set_awb
 387              	.LVL36:
 388 0030 1E4D     		ldr	r5, .L22+12
 389              	.LBB68:
 390              	.LBB69:
 391              	.LBB70:
 392              	.LBB71:
 393              		.file 4 "../lib/e-puck2_main-processor/ChibiOS//os/rt/include/chsys.h"
 394              		.loc 4 367 0
 395 0032 1F4F     		ldr	r7, .L22+16
 396              	.LBE71:
 397              	.LBE70:
 398              	.LBE69:
 399              	.LBE68:
ARM GAS  C:\Users\noeta\AppData\Local\Temp\ccec6KNw.s 			page 8


 400              		.loc 1 31 0
 401 0034 5D22     		movs	r2, #93
 402 0036 4521     		movs	r1, #69
 403 0038 4A20     		movs	r0, #74
 404 003a FFF7FEFF 		bl	po8030_set_rgb_gain
 405              	.LVL37:
 406              		.loc 1 32 0
 407 003e FFF7FEFF 		bl	dcmi_enable_double_buffering
 408              	.LVL38:
 409              		.loc 1 33 0
 410 0042 0020     		movs	r0, #0
 411 0044 FFF7FEFF 		bl	dcmi_set_capture_mode
 412              	.LVL39:
 413              	.LBB94:
 414              	.LBB91:
 415              	.LBB76:
 416              	.LBB77:
 417              		.loc 3 271 0
 418 0048 A846     		mov	r8, r5
 419              	.LBE77:
 420              	.LBE76:
 421              	.LBE91:
 422              	.LBE94:
 423              		.loc 1 34 0
 424 004a FFF7FEFF 		bl	dcmi_prepare
 425              	.LVL40:
 426              	.LBB95:
 427              	.LBB92:
 428              	.LBB79:
 429              	.LBB80:
 430              	.LBB81:
 431              	.LBB82:
 432              	.LBB83:
 433              		.file 5 "../lib/e-puck2_main-processor/ChibiOS//os/ext/CMSIS/include/core_cmFunc.h"
 434              		.loc 5 546 0
 435 004e 2026     		movs	r6, #32
 436 0050 13E0     		b	.L19
 437              	.LVL41:
 438              	.L17:
 439              	.LBE83:
 440              	.LBE82:
 441              	.LBE81:
 442              	.LBE80:
 443              	.LBE79:
 444              		.loc 3 286 0
 445 0052 FFF7FEFF 		bl	chSchRescheduleS
 446              	.LVL42:
 447              	.LBB88:
 448              	.LBB75:
 449              		.loc 4 360 0
 450 0056 FFF7FEFF 		bl	_dbg_check_unlock
 451              	.LVL43:
 452              		.loc 4 361 0
 453 005a FFF7FEFF 		bl	_stats_stop_measure_crit_thd
 454              	.LVL44:
 455              		.loc 4 367 0
 456 005e 2368     		ldr	r3, [r4]
ARM GAS  C:\Users\noeta\AppData\Local\Temp\ccec6KNw.s 			page 9


 457 0060 A342     		cmp	r3, r4
 458 0062 07D0     		beq	.L18
 459 0064 A269     		ldr	r2, [r4, #24]
 460 0066 9B68     		ldr	r3, [r3, #8]
 461 0068 9268     		ldr	r2, [r2, #8]
 462 006a 9A42     		cmp	r2, r3
 463 006c 02D2     		bcs	.L18
 464 006e 3846     		mov	r0, r7
 465 0070 FFF7FEFF 		bl	chSysHalt
 466              	.LVL45:
 467              	.L18:
 468              	.LBB72:
 469              	.LBB73:
 470              	.LBB74:
 471              		.loc 5 546 0
 472 0074 0023     		movs	r3, #0
 473              		.syntax unified
 474              	@ 546 "../lib/e-puck2_main-processor/ChibiOS//os/ext/CMSIS/include/core_cmFunc.h" 1
 475 0076 83F31188 		MSR basepri, r3
 476              	@ 0 "" 2
 477              	.LVL46:
 478              		.thumb
 479              		.syntax unified
 480              	.L19:
 481              	.LBE74:
 482              	.LBE73:
 483              	.LBE72:
 484              	.LBE75:
 485              	.LBE88:
 486              	.LBE92:
 487              	.LBE95:
 488              		.loc 1 38 0 discriminator 1
 489 007a FFF7FEFF 		bl	dcmi_capture_start
 490              	.LVL47:
 491              		.loc 1 40 0 discriminator 1
 492 007e FFF7FEFF 		bl	wait_image_ready
 493              	.LVL48:
 494              	.LBB96:
 495              	.LBB93:
 496              	.LBB89:
 497              	.LBB87:
 498              	.LBB86:
 499              	.LBB85:
 500              	.LBB84:
 501              		.loc 5 546 0 discriminator 1
 502              		.syntax unified
 503              	@ 546 "../lib/e-puck2_main-processor/ChibiOS//os/ext/CMSIS/include/core_cmFunc.h" 1
 504 0082 86F31188 		MSR basepri, r6
 505              	@ 0 "" 2
 506              	.LVL49:
 507              		.thumb
 508              		.syntax unified
 509              	.LBE84:
 510              	.LBE85:
 511              	.LBE86:
 512              		.loc 4 349 0 discriminator 1
 513 0086 FFF7FEFF 		bl	_stats_start_measure_crit_thd
ARM GAS  C:\Users\noeta\AppData\Local\Temp\ccec6KNw.s 			page 10


 514              	.LVL50:
 515              		.loc 4 350 0 discriminator 1
 516 008a FFF7FEFF 		bl	_dbg_check_lock
 517              	.LVL51:
 518              	.LBE87:
 519              	.LBE89:
 520              	.LBB90:
 521              	.LBB78:
 522              		.loc 3 268 0 discriminator 1
 523 008e FFF7FEFF 		bl	chDbgCheckClassI
 524              	.LVL52:
 525              		.loc 3 270 0 discriminator 1
 526 0092 AB68     		ldr	r3, [r5, #8]
 527 0094 002B     		cmp	r3, #0
 528 0096 DCDC     		bgt	.L17
 529              		.loc 3 271 0
 530 0098 4046     		mov	r0, r8
 531 009a FFF7FEFF 		bl	chSemSignalI
 532              	.LVL53:
 533 009e D8E7     		b	.L17
 534              	.L23:
 535              		.align	2
 536              	.L22:
 537 00a0 00000000 		.word	ch
 538 00a4 00000000 		.word	__stack_chk_guard
 539 00a8 00000000 		.word	.LANCHOR3
 540 00ac 00000000 		.word	.LANCHOR1
 541 00b0 00000000 		.word	.LANCHOR4
 542              	.LBE78:
 543              	.LBE90:
 544              	.LBE93:
 545              	.LBE96:
 546              		.cfi_endproc
 547              	.LFE256:
 548              		.size	CaptureImage, .-CaptureImage
 549              		.section	.text.get_state,"ax",%progbits
 550              		.align	1
 551              		.p2align 4,,15
 552              		.global	get_state
 553              		.syntax unified
 554              		.thumb
 555              		.thumb_func
 556              		.fpu fpv4-sp-d16
 557              		.type	get_state, %function
 558              	get_state:
 559              	.LFB258:
 560              		.loc 1 114 0
 561              		.cfi_startproc
 562              		@ args = 0, pretend = 0, frame = 8
 563              		@ frame_needed = 0, uses_anonymous_args = 0
 564 0000 00B5     		push	{lr}
 565              		.cfi_def_cfa_offset 4
 566              		.cfi_offset 14, -4
 567 0002 074B     		ldr	r3, .L28
 568              		.loc 1 115 0
 569 0004 0749     		ldr	r1, .L28+4
 570              		.loc 1 114 0
ARM GAS  C:\Users\noeta\AppData\Local\Temp\ccec6KNw.s 			page 11


 571 0006 1A68     		ldr	r2, [r3]
 572              		.loc 1 116 0
 573 0008 0878     		ldrb	r0, [r1]	@ zero_extendqisi2
 574              		.loc 1 114 0
 575 000a 83B0     		sub	sp, sp, #12
 576              		.cfi_def_cfa_offset 16
 577              		.loc 1 114 0
 578 000c 0192     		str	r2, [sp, #4]
 579              		.loc 1 116 0
 580 000e 019A     		ldr	r2, [sp, #4]
 581 0010 1B68     		ldr	r3, [r3]
 582 0012 9A42     		cmp	r2, r3
 583 0014 02D1     		bne	.L27
 584 0016 03B0     		add	sp, sp, #12
 585              		.cfi_remember_state
 586              		.cfi_def_cfa_offset 4
 587              		@ sp needed
 588 0018 5DF804FB 		ldr	pc, [sp], #4
 589              	.L27:
 590              		.cfi_restore_state
 591 001c FFF7FEFF 		bl	__stack_chk_fail
 592              	.LVL54:
 593              	.L29:
 594              		.align	2
 595              	.L28:
 596 0020 00000000 		.word	__stack_chk_guard
 597 0024 00000000 		.word	.LANCHOR2
 598              		.cfi_endproc
 599              	.LFE258:
 600              		.size	get_state, .-get_state
 601              		.section	.text.process_image_start,"ax",%progbits
 602              		.align	1
 603              		.p2align 4,,15
 604              		.global	process_image_start
 605              		.syntax unified
 606              		.thumb
 607              		.thumb_func
 608              		.fpu fpv4-sp-d16
 609              		.type	process_image_start, %function
 610              	process_image_start:
 611              	.LFB259:
 612              		.loc 1 119 0
 613              		.cfi_startproc
 614              		@ args = 0, pretend = 0, frame = 8
 615              		@ frame_needed = 0, uses_anonymous_args = 0
 616 0000 30B5     		push	{r4, r5, lr}
 617              		.cfi_def_cfa_offset 12
 618              		.cfi_offset 4, -12
 619              		.cfi_offset 5, -8
 620              		.cfi_offset 14, -4
 621 0002 0E4C     		ldr	r4, .L34
 622              		.loc 1 120 0
 623 0004 0E4B     		ldr	r3, .L34+4
 624              		.loc 1 119 0
 625 0006 2268     		ldr	r2, [r4]
 626              		.loc 1 120 0
 627 0008 0E48     		ldr	r0, .L34+8
ARM GAS  C:\Users\noeta\AppData\Local\Temp\ccec6KNw.s 			page 12


 628              		.loc 1 119 0
 629 000a 85B0     		sub	sp, sp, #20
 630              		.cfi_def_cfa_offset 32
 631              		.loc 1 120 0
 632 000c 0025     		movs	r5, #0
 633              		.loc 1 119 0
 634 000e 0392     		str	r2, [sp, #12]
 635              		.loc 1 120 0
 636 0010 40F67811 		movw	r1, #2424
 637 0014 4022     		movs	r2, #64
 638 0016 0095     		str	r5, [sp]
 639 0018 FFF7FEFF 		bl	chThdCreateStatic
 640              	.LVL55:
 641              		.loc 1 121 0
 642 001c 0A4B     		ldr	r3, .L34+12
 643 001e 0095     		str	r5, [sp]
 644 0020 4022     		movs	r2, #64
 645 0022 0A48     		ldr	r0, .L34+16
 646 0024 4FF41E71 		mov	r1, #632
 647 0028 FFF7FEFF 		bl	chThdCreateStatic
 648              	.LVL56:
 649              		.loc 1 122 0
 650 002c 039A     		ldr	r2, [sp, #12]
 651 002e 2368     		ldr	r3, [r4]
 652 0030 9A42     		cmp	r2, r3
 653 0032 01D1     		bne	.L33
 654 0034 05B0     		add	sp, sp, #20
 655              		.cfi_remember_state
 656              		.cfi_def_cfa_offset 12
 657              		@ sp needed
 658 0036 30BD     		pop	{r4, r5, pc}
 659              	.L33:
 660              		.cfi_restore_state
 661 0038 FFF7FEFF 		bl	__stack_chk_fail
 662              	.LVL57:
 663              	.L35:
 664              		.align	2
 665              	.L34:
 666 003c 00000000 		.word	__stack_chk_guard
 667 0040 00000000 		.word	ProcessImage
 668 0044 00000000 		.word	.LANCHOR5
 669 0048 00000000 		.word	CaptureImage
 670 004c 00000000 		.word	.LANCHOR6
 671              		.cfi_endproc
 672              	.LFE259:
 673              		.size	process_image_start, .-process_image_start
 674              		.section	.bss.state,"aw",%nobits
 675              		.set	.LANCHOR2,. + 0
 676              		.type	state, %object
 677              		.size	state, 1
 678              	state:
 679 0000 00       		.space	1
 680              		.section	.bss.waCaptureImage,"aw",%nobits
 681              		.align	3
 682              		.set	.LANCHOR6,. + 0
 683              		.type	waCaptureImage, %object
 684              		.size	waCaptureImage, 632
ARM GAS  C:\Users\noeta\AppData\Local\Temp\ccec6KNw.s 			page 13


 685              	waCaptureImage:
 686 0000 00000000 		.space	632
 686      00000000 
 686      00000000 
 686      00000000 
 686      00000000 
 687              		.section	.bss.waProcessImage,"aw",%nobits
 688              		.align	3
 689              		.set	.LANCHOR5,. + 0
 690              		.type	waProcessImage, %object
 691              		.size	waProcessImage, 2424
 692              	waProcessImage:
 693 0000 00000000 		.space	2424
 693      00000000 
 693      00000000 
 693      00000000 
 693      00000000 
 694              		.section	.data.image_ready_sem,"aw",%progbits
 695              		.align	2
 696              		.set	.LANCHOR1,. + 0
 697              		.type	image_ready_sem, %object
 698              		.size	image_ready_sem, 12
 699              	image_ready_sem:
 700 0000 00000000 		.word	image_ready_sem
 701 0004 00000000 		.word	image_ready_sem
 702 0008 00000000 		.word	0
 703              		.section	.rodata.__FUNCTION__.11308,"a",%progbits
 704              		.align	2
 705              		.set	.LANCHOR3,. + 0
 706              		.type	__FUNCTION__.11308, %object
 707              		.size	__FUNCTION__.11308, 13
 708              	__FUNCTION__.11308:
 709 0000 43617074 		.ascii	"CaptureImage\000"
 709      75726549 
 709      6D616765 
 709      00
 710              		.section	.rodata.__FUNCTION__.11314,"a",%progbits
 711              		.align	2
 712              		.set	.LANCHOR0,. + 0
 713              		.type	__FUNCTION__.11314, %object
 714              		.size	__FUNCTION__.11314, 13
 715              	__FUNCTION__.11314:
 716 0000 50726F63 		.ascii	"ProcessImage\000"
 716      65737349 
 716      6D616765 
 716      00
 717              		.section	.rodata.__func__.7153,"a",%progbits
 718              		.align	2
 719              		.set	.LANCHOR4,. + 0
 720              		.type	__func__.7153, %object
 721              		.size	__func__.7153, 12
 722              	__func__.7153:
 723 0000 63685379 		.ascii	"chSysUnlock\000"
 723      73556E6C 
 723      6F636B00 
 724              		.text
 725              	.Letext0:
ARM GAS  C:\Users\noeta\AppData\Local\Temp\ccec6KNw.s 			page 14


 726              		.file 6 "c:\\users\\noeta\\downloads\\eclipse_e-puck2\\tools\\gcc-arm-none-eabi-7-2017-q4-major-wi
 727              		.file 7 "c:\\users\\noeta\\downloads\\eclipse_e-puck2\\tools\\gcc-arm-none-eabi-7-2017-q4-major-wi
 728              		.file 8 "c:\\users\\noeta\\downloads\\eclipse_e-puck2\\tools\\gcc-arm-none-eabi-7-2017-q4-major-wi
 729              		.file 9 "../lib/e-puck2_main-processor/ChibiOS//os/rt/ports/ARMCMx/compilers/GCC/chtypes.h"
 730              		.file 10 "../lib/e-puck2_main-processor/ChibiOS//os/rt/include/chsystypes.h"
 731              		.file 11 "../lib/e-puck2_main-processor/ChibiOS//os/rt/include/chschd.h"
 732              		.file 12 "../lib/e-puck2_main-processor/ChibiOS//os/ext/CMSIS/include/core_cm4.h"
 733              		.file 13 "../lib/e-puck2_main-processor/ChibiOS//os/ext/CMSIS/ST/system_stm32f4xx.h"
 734              		.file 14 "../lib/e-puck2_main-processor/ChibiOS//os/ext/CMSIS/ST/stm32f407xx.h"
 735              		.file 15 "../lib/e-puck2_main-processor/ChibiOS//os/rt/ports/ARMCMx/chcore.h"
 736              		.file 16 "../lib/e-puck2_main-processor/ChibiOS//os/rt/ports/ARMCMx/chcore_v7m.h"
 737              		.file 17 "../lib/e-puck2_main-processor/ChibiOS//os/rt/include/chdebug.h"
 738              		.file 18 "../lib/e-puck2_main-processor/ChibiOS//os/rt/include/chtm.h"
 739              		.file 19 "../lib/e-puck2_main-processor/ChibiOS//os/rt/include/chstats.h"
 740              		.file 20 "../lib/e-puck2_main-processor/ChibiOS//os/rt/include/chsem.h"
 741              		.file 21 "../lib/e-puck2_main-processor/ChibiOS//os/rt/include/chmtx.h"
 742              		.file 22 "../lib/e-puck2_main-processor/ChibiOS//os/rt/include/chevents.h"
 743              		.file 23 "../lib/e-puck2_main-processor/ChibiOS//os/rt/include/chqueues.h"
 744              		.file 24 "../lib/e-puck2_main-processor/ChibiOS//os/hal/ports/STM32/STM32F4xx/stm32_dma.h"
 745              		.file 25 "../lib/e-puck2_main-processor/ChibiOS//os/hal/include/hal_ioblock.h"
 746              		.file 26 "../lib/e-puck2_main-processor/ChibiOS//os/hal/ports/STM32/LLD/GPIOv2/pal_lld.h"
 747              		.file 27 "../lib/e-puck2_main-processor/ChibiOS//os/hal/include/adc.h"
 748              		.file 28 "../lib/e-puck2_main-processor/ChibiOS//os/hal/ports/STM32/STM32F4xx/adc_lld.h"
 749              		.file 29 "../lib/e-puck2_main-processor/ChibiOS//os/hal/include/can.h"
 750              		.file 30 "../lib/e-puck2_main-processor/ChibiOS//os/hal/ports/STM32/LLD/can_lld.h"
 751              		.file 31 "../lib/e-puck2_main-processor/ChibiOS//os/hal/include/dac.h"
 752              		.file 32 "../lib/e-puck2_main-processor/ChibiOS//os/hal/ports/STM32/LLD/DACv1/dac_lld.h"
 753              		.file 33 "../lib/e-puck2_main-processor/ChibiOS//os/hal/include/ext.h"
 754              		.file 34 "../lib/e-puck2_main-processor/ChibiOS//os/hal/ports/STM32/LLD/ext_lld.h"
 755              		.file 35 "../lib/e-puck2_main-processor/ChibiOS//os/hal/include/gpt.h"
 756              		.file 36 "../lib/e-puck2_main-processor/ChibiOS//os/hal/ports/STM32/LLD/TIMv1/gpt_lld.h"
 757              		.file 37 "../lib/e-puck2_main-processor/ChibiOS//os/hal/ports/STM32/LLD/TIMv1/stm32_tim.h"
 758              		.file 38 "../lib/e-puck2_main-processor/ChibiOS//os/hal/include/i2c.h"
 759              		.file 39 "../lib/e-puck2_main-processor/ChibiOS//os/hal/ports/STM32/LLD/I2Cv1/i2c_lld.h"
 760              		.file 40 "../lib/e-puck2_main-processor/ChibiOS//os/hal/include/i2s.h"
 761              		.file 41 "../lib/e-puck2_main-processor/ChibiOS//os/hal/ports/STM32/LLD/SPIv1/i2s_lld.h"
 762              		.file 42 "../lib/e-puck2_main-processor/ChibiOS//os/hal/include/pwm.h"
 763              		.file 43 "../lib/e-puck2_main-processor/ChibiOS//os/hal/ports/STM32/LLD/TIMv1/pwm_lld.h"
 764              		.file 44 "../lib/e-puck2_main-processor/ChibiOS//os/hal/include/serial.h"
 765              		.file 45 "../lib/e-puck2_main-processor/ChibiOS//os/hal/ports/STM32/LLD/USARTv1/serial_lld.h"
 766              		.file 46 "../lib/e-puck2_main-processor/ChibiOS//os/hal/include/sdc.h"
 767              		.file 47 "../lib/e-puck2_main-processor/ChibiOS//os/hal/ports/STM32/LLD/sdc_lld.h"
 768              		.file 48 "../lib/e-puck2_main-processor/ChibiOS//os/hal/include/spi.h"
 769              		.file 49 "../lib/e-puck2_main-processor/ChibiOS//os/hal/ports/STM32/LLD/SPIv1/spi_lld.h"
 770              		.file 50 "../lib/e-puck2_main-processor/ChibiOS//os/hal/include/usb.h"
 771              		.file 51 "../lib/e-puck2_main-processor/ChibiOS//os/hal/ports/STM32/LLD/OTGv1/usb_lld.h"
 772              		.file 52 "../lib/e-puck2_main-processor/ChibiOS//os/hal/ports/STM32/LLD/OTGv1/stm32_otg.h"
 773              		.file 53 "../lib/e-puck2_main-processor/ChibiOS_ext/os/hal/include/../ports/STM32/STM32F4xx/dcmi_l
 774              		.file 54 "../lib/e-puck2_main-processor/src/camera/po8030.h"
 775              		.file 55 "../lib/e-puck2_main-processor/src/camera/dcmi_camera.h"
 776              		.file 56 "c:\\users\\noeta\\downloads\\eclipse_e-puck2\\tools\\gcc-arm-none-eabi-7-2017-q4-major-w
 777              		.file 57 "c:\\users\\noeta\\downloads\\eclipse_e-puck2\\tools\\gcc-arm-none-eabi-7-2017-q4-major-w
 778              		.file 58 "c:\\users\\noeta\\downloads\\eclipse_e-puck2\\tools\\gcc-arm-none-eabi-7-2017-q4-major-w
 779              		.file 59 "../lib/e-puck2_main-processor/src/msgbus/messagebus.h"
 780              		.file 60 "c:\\users\\noeta\\downloads\\eclipse_e-puck2\\tools\\gcc-arm-none-eabi-7-2017-q4-major-w
 781              		.file 61 "c:\\users\\noeta\\downloads\\eclipse_e-puck2\\tools\\gcc-arm-none-eabi-7-2017-q4-major-w
 782              		.file 62 "../lib/e-puck2_main-processor/src/parameter/parameter.h"
ARM GAS  C:\Users\noeta\AppData\Local\Temp\ccec6KNw.s 			page 15


 783              		.file 63 "./main.h"
 784              		.file 64 "../lib/e-puck2_main-processor/ChibiOS//os/rt/include/chthreads.h"
 785              		.file 65 "<built-in>"